??0?$AlignTypeSpec@$0A@@fmt@@QAE@I_W@Z
??0?$BasicFormatter@D@fmt@@QAE@AAV?$BasicWriter@D@1@@Z
??0?$BasicFormatter@_W@fmt@@QAE@AAV?$BasicWriter@_W@1@@Z
??0?$BasicStringRef@D@fmt@@QAE@ABV?$basic_string@DU?$char_traits@D@std@@V?$allocator@D@2@@std@@@Z
??0?$BasicStringRef@D@fmt@@QAE@PBDI@Z
??0?$BasicStringRef@_W@fmt@@QAE@PB_WI@Z
??0?$BasicWriter@D@fmt@@QAE@XZ
??0?$BasicWriter@_W@fmt@@QAE@XZ
??0?$DynArray@D$0BE@@tinyxml2@@QAE@XZ
??0?$DynArray@PAUBlock@?$MemPoolT@$0CE@@tinyxml2@@$09@tinyxml2@@QAE@XZ
??0?$DynArray@PAUBlock@?$MemPoolT@$0CM@@tinyxml2@@$09@tinyxml2@@QAE@XZ
??0?$DynArray@PAUBlock@?$MemPoolT@$0DA@@tinyxml2@@$09@tinyxml2@@QAE@XZ
??0?$DynArray@PAUBlock@?$MemPoolT@$0DE@@tinyxml2@@$09@tinyxml2@@QAE@XZ
??0?$DynArray@PBD$09@tinyxml2@@QAE@XZ
??0?$IntFormatSpec@HU?$AlignTypeSpec@$0A@@fmt@@D@fmt@@QAE@HABU?$AlignTypeSpec@$0A@@1@@Z
??0?$IntFormatSpec@HU?$TypeSpec@$0A@@fmt@@D@fmt@@QAE@HABU?$TypeSpec@$0A@@1@@Z
??0?$IntFormatSpec@HU?$TypeSpec@$0FI@@fmt@@D@fmt@@QAE@HABU?$TypeSpec@$0FI@@1@@Z
??0?$IntFormatSpec@HU?$TypeSpec@$0GC@@fmt@@D@fmt@@QAE@HABU?$TypeSpec@$0GC@@1@@Z
??0?$IntFormatSpec@HU?$TypeSpec@$0GP@@fmt@@D@fmt@@QAE@HABU?$TypeSpec@$0GP@@1@@Z
??0?$IntFormatSpec@HU?$TypeSpec@$0HI@@fmt@@D@fmt@@QAE@HABU?$TypeSpec@$0HI@@1@@Z
??0?$IntFormatSpec@IU?$AlignTypeSpec@$0A@@fmt@@D@fmt@@QAE@IABU?$AlignTypeSpec@$0A@@1@@Z
??0?$IntFormatSpec@IU?$TypeSpec@$0FI@@fmt@@D@fmt@@QAE@IABU?$TypeSpec@$0FI@@1@@Z
??0?$IntFormatSpec@IU?$TypeSpec@$0GC@@fmt@@D@fmt@@QAE@IABU?$TypeSpec@$0GC@@1@@Z
??0?$IntFormatSpec@IU?$TypeSpec@$0GP@@fmt@@D@fmt@@QAE@IABU?$TypeSpec@$0GP@@1@@Z
??0?$IntFormatSpec@IU?$TypeSpec@$0HI@@fmt@@D@fmt@@QAE@IABU?$TypeSpec@$0HI@@1@@Z
??0?$IntFormatSpec@JU?$AlignTypeSpec@$0A@@fmt@@D@fmt@@QAE@JABU?$AlignTypeSpec@$0A@@1@@Z
??0?$IntFormatSpec@JU?$TypeSpec@$0FI@@fmt@@D@fmt@@QAE@JABU?$TypeSpec@$0FI@@1@@Z
??0?$IntFormatSpec@JU?$TypeSpec@$0GC@@fmt@@D@fmt@@QAE@JABU?$TypeSpec@$0GC@@1@@Z
??0?$IntFormatSpec@JU?$TypeSpec@$0GP@@fmt@@D@fmt@@QAE@JABU?$TypeSpec@$0GP@@1@@Z
??0?$IntFormatSpec@JU?$TypeSpec@$0HI@@fmt@@D@fmt@@QAE@JABU?$TypeSpec@$0HI@@1@@Z
??0?$IntFormatSpec@KU?$AlignTypeSpec@$0A@@fmt@@D@fmt@@QAE@KABU?$AlignTypeSpec@$0A@@1@@Z
??0?$IntFormatSpec@KU?$TypeSpec@$0FI@@fmt@@D@fmt@@QAE@KABU?$TypeSpec@$0FI@@1@@Z
??0?$IntFormatSpec@KU?$TypeSpec@$0GC@@fmt@@D@fmt@@QAE@KABU?$TypeSpec@$0GC@@1@@Z
??0?$IntFormatSpec@KU?$TypeSpec@$0GP@@fmt@@D@fmt@@QAE@KABU?$TypeSpec@$0GP@@1@@Z
??0?$IntFormatSpec@KU?$TypeSpec@$0HI@@fmt@@D@fmt@@QAE@KABU?$TypeSpec@$0HI@@1@@Z
??0?$IntFormatSpec@_JU?$AlignTypeSpec@$0A@@fmt@@D@fmt@@QAE@_JABU?$AlignTypeSpec@$0A@@1@@Z
??0?$IntFormatSpec@_JU?$TypeSpec@$0FI@@fmt@@D@fmt@@QAE@_JABU?$TypeSpec@$0FI@@1@@Z
??0?$IntFormatSpec@_JU?$TypeSpec@$0GC@@fmt@@D@fmt@@QAE@_JABU?$TypeSpec@$0GC@@1@@Z
??0?$IntFormatSpec@_JU?$TypeSpec@$0GP@@fmt@@D@fmt@@QAE@_JABU?$TypeSpec@$0GP@@1@@Z
??0?$IntFormatSpec@_JU?$TypeSpec@$0HI@@fmt@@D@fmt@@QAE@_JABU?$TypeSpec@$0HI@@1@@Z
??0?$IntFormatSpec@_KU?$AlignTypeSpec@$0A@@fmt@@D@fmt@@QAE@_KABU?$AlignTypeSpec@$0A@@1@@Z
??0?$IntFormatSpec@_KU?$TypeSpec@$0FI@@fmt@@D@fmt@@QAE@_KABU?$TypeSpec@$0FI@@1@@Z
??0?$IntFormatSpec@_KU?$TypeSpec@$0GC@@fmt@@D@fmt@@QAE@_KABU?$TypeSpec@$0GC@@1@@Z
??0?$IntFormatSpec@_KU?$TypeSpec@$0GP@@fmt@@D@fmt@@QAE@_KABU?$TypeSpec@$0GP@@1@@Z
??0?$IntFormatSpec@_KU?$TypeSpec@$0HI@@fmt@@D@fmt@@QAE@_KABU?$TypeSpec@$0HI@@1@@Z
??0?$MakeArg@D@internal@fmt@@QAE@D@Z
??0?$MemPoolT@$0CE@@tinyxml2@@QAE@ABV01@@Z
??0?$MemPoolT@$0CE@@tinyxml2@@QAE@XZ
??0?$MemPoolT@$0CM@@tinyxml2@@QAE@ABV01@@Z
??0?$MemPoolT@$0CM@@tinyxml2@@QAE@XZ
??0?$MemPoolT@$0DA@@tinyxml2@@QAE@ABV01@@Z
??0?$MemPoolT@$0DA@@tinyxml2@@QAE@XZ
??0?$MemPoolT@$0DE@@tinyxml2@@QAE@ABV01@@Z
??0?$MemPoolT@$0DE@@tinyxml2@@QAE@XZ
??0?$PrintfParser@D@internal@fmt@@QAE@XZ
??0?$PrintfParser@_W@internal@fmt@@QAE@XZ
??0?$StrFormatSpec@_W@fmt@@QAE@PB_WI_W@Z
??0ArgList@fmt@@QAE@PBUArg@internal@1@I@Z
??0ArgList@fmt@@QAE@XZ
??0CCAccelAmplitude@cocos2d@@QAE@ABV01@@Z
??0CCAccelAmplitude@cocos2d@@QAE@XZ
??0CCAccelDeccelAmplitude@cocos2d@@QAE@ABV01@@Z
??0CCAccelDeccelAmplitude@cocos2d@@QAE@XZ
??0CCAccelerometer@cocos2d@@QAE@XZ
??0CCAccelerometerDelegate@cocos2d@@QAE@ABV01@@Z
??0CCAccelerometerDelegate@cocos2d@@QAE@XZ
??0CCAction@cocos2d@@QAE@ABV01@@Z
??0CCAction@cocos2d@@QAE@XZ
??0CCActionCamera@cocos2d@@QAE@ABV01@@Z
??0CCActionCamera@cocos2d@@QAE@XZ
??0CCActionEase@cocos2d@@QAE@ABV01@@Z
??0CCActionEase@cocos2d@@QAE@XZ
??0CCActionInstant@cocos2d@@QAE@ABV01@@Z
??0CCActionInstant@cocos2d@@QAE@XZ
??0CCActionInterval@cocos2d@@QAE@ABV01@@Z
??0CCActionInterval@cocos2d@@QAE@XZ
??0CCActionManager@cocos2d@@QAE@ABV01@@Z
??0CCActionManager@cocos2d@@QAE@XZ
??0CCActionTween@cocos2d@@QAE@ABV01@@Z
??0CCActionTween@cocos2d@@QAE@XZ
??0CCActionTweenDelegate@cocos2d@@QAE@ABV01@@Z
??0CCActionTweenDelegate@cocos2d@@QAE@XZ
??0CCAnimate@cocos2d@@QAE@ABV01@@Z
??0CCAnimate@cocos2d@@QAE@XZ
??0CCAnimation@cocos2d@@QAE@ABV01@@Z
??0CCAnimation@cocos2d@@QAE@XZ
??0CCAnimationCache@cocos2d@@QAE@ABV01@@Z
??0CCAnimationCache@cocos2d@@QAE@XZ
??0CCAnimationFrame@cocos2d@@QAE@ABV01@@Z
??0CCAnimationFrame@cocos2d@@QAE@XZ
??0CCApplication@cocos2d@@QAE@ABV01@@Z
??0CCApplication@cocos2d@@QAE@XZ
??0CCApplicationProtocol@cocos2d@@QAE@ABV01@@Z
??0CCApplicationProtocol@cocos2d@@QAE@XZ
??0CCArray@cocos2d@@QAE@ABV01@@Z
??0CCArray@cocos2d@@QAE@I@Z
??0CCArray@cocos2d@@QAE@XZ
??0CCAtlasNode@cocos2d@@QAE@ABV01@@Z
??0CCAtlasNode@cocos2d@@QAE@XZ
??0CCAutoreleasePool@cocos2d@@QAE@ABV01@@Z
??0CCAutoreleasePool@cocos2d@@QAE@XZ
??0CCBMFontConfiguration@cocos2d@@QAE@ABV01@@Z
??0CCBMFontConfiguration@cocos2d@@QAE@XZ
??0CCBezierBy@cocos2d@@QAE@ABV01@@Z
??0CCBezierBy@cocos2d@@QAE@XZ
??0CCBezierTo@cocos2d@@QAE@ABV01@@Z
??0CCBezierTo@cocos2d@@QAE@XZ
??0CCBlendProtocol@cocos2d@@QAE@ABV01@@Z
??0CCBlendProtocol@cocos2d@@QAE@XZ
??0CCBlink@cocos2d@@QAE@ABV01@@Z
??0CCBlink@cocos2d@@QAE@XZ
??0CCBool@cocos2d@@QAE@ABV01@@Z
??0CCBool@cocos2d@@QAE@_N@Z
??0CCCallFunc@cocos2d@@QAE@ABV01@@Z
??0CCCallFunc@cocos2d@@QAE@XZ
??0CCCallFuncN@cocos2d@@QAE@ABV01@@Z
??0CCCallFuncN@cocos2d@@QAE@XZ
??0CCCallFuncND@cocos2d@@QAE@ABV01@@Z
??0CCCallFuncND@cocos2d@@QAE@XZ
??0CCCallFuncO@cocos2d@@QAE@ABV01@@Z
??0CCCallFuncO@cocos2d@@QAE@XZ
??0CCCamera@cocos2d@@QAE@XZ
??0CCCardinalSplineBy@cocos2d@@QAE@ABV01@@Z
??0CCCardinalSplineBy@cocos2d@@QAE@XZ
??0CCCardinalSplineTo@cocos2d@@QAE@ABV01@@Z
??0CCCardinalSplineTo@cocos2d@@QAE@XZ
??0CCCatmullRomBy@cocos2d@@QAE@ABV01@@Z
??0CCCatmullRomBy@cocos2d@@QAE@XZ
??0CCCatmullRomTo@cocos2d@@QAE@ABV01@@Z
??0CCCatmullRomTo@cocos2d@@QAE@XZ
??0CCClippingNode@cocos2d@@IAE@XZ
??0CCClippingNode@cocos2d@@QAE@ABV01@@Z
??0CCComponent@cocos2d@@IAE@XZ
??0CCComponent@cocos2d@@QAE@ABV01@@Z
??0CCComponentContainer@cocos2d@@IAE@PAVCCNode@1@@Z
??0CCComponentContainer@cocos2d@@QAE@ABV01@@Z
??0CCConfiguration@cocos2d@@AAE@XZ
??0CCConfiguration@cocos2d@@QAE@ABV01@@Z
??0CCContentManager@@QAE@ABV0@@Z
??0CCContentManager@@QAE@XZ
??0CCCopying@cocos2d@@QAE@ABV01@@Z
??0CCCopying@cocos2d@@QAE@XZ
??0CCDataVisitor@cocos2d@@QAE@ABV01@@Z
??0CCDataVisitor@cocos2d@@QAE@XZ
??0CCDeccelAmplitude@cocos2d@@QAE@ABV01@@Z
??0CCDeccelAmplitude@cocos2d@@QAE@XZ
??0CCDelayTime@cocos2d@@QAE@ABV01@@Z
??0CCDelayTime@cocos2d@@QAE@XZ
??0CCDictElement@cocos2d@@AAE@HPAVCCObject@1@@Z
??0CCDictElement@cocos2d@@AAE@PBDPAVCCObject@1@@Z
??0CCDictionary@cocos2d@@QAE@ABV01@@Z
??0CCDictionary@cocos2d@@QAE@XZ
??0CCDirector@cocos2d@@QAE@ABV01@@Z
??0CCDirector@cocos2d@@QAE@XZ
??0CCDirectorDelegate@cocos2d@@QAE@ABV01@@Z
??0CCDirectorDelegate@cocos2d@@QAE@XZ
??0CCDouble@cocos2d@@QAE@ABV01@@Z
??0CCDouble@cocos2d@@QAE@N@Z
??0CCDrawNode@cocos2d@@QAE@ABV01@@Z
??0CCDrawNode@cocos2d@@QAE@XZ
??0CCEGLView@cocos2d@@IAE@XZ
??0CCEGLView@cocos2d@@QAE@ABV01@@Z
??0CCEGLViewProtocol@cocos2d@@QAE@ABV01@@Z
??0CCEGLViewProtocol@cocos2d@@QAE@XZ
??0CCEaseBackIn@cocos2d@@QAE@ABV01@@Z
??0CCEaseBackIn@cocos2d@@QAE@XZ
??0CCEaseBackInOut@cocos2d@@QAE@ABV01@@Z
??0CCEaseBackInOut@cocos2d@@QAE@XZ
??0CCEaseBackOut@cocos2d@@QAE@ABV01@@Z
??0CCEaseBackOut@cocos2d@@QAE@XZ
??0CCEaseBounce@cocos2d@@QAE@ABV01@@Z
??0CCEaseBounce@cocos2d@@QAE@XZ
??0CCEaseBounceIn@cocos2d@@QAE@ABV01@@Z
??0CCEaseBounceIn@cocos2d@@QAE@XZ
??0CCEaseBounceInOut@cocos2d@@QAE@ABV01@@Z
??0CCEaseBounceInOut@cocos2d@@QAE@XZ
??0CCEaseBounceOut@cocos2d@@QAE@ABV01@@Z
??0CCEaseBounceOut@cocos2d@@QAE@XZ
??0CCEaseElastic@cocos2d@@QAE@ABV01@@Z
??0CCEaseElastic@cocos2d@@QAE@XZ
??0CCEaseElasticIn@cocos2d@@QAE@ABV01@@Z
??0CCEaseElasticIn@cocos2d@@QAE@XZ
??0CCEaseElasticInOut@cocos2d@@QAE@ABV01@@Z
??0CCEaseElasticInOut@cocos2d@@QAE@XZ
??0CCEaseElasticOut@cocos2d@@QAE@ABV01@@Z
??0CCEaseElasticOut@cocos2d@@QAE@XZ
??0CCEaseExponentialIn@cocos2d@@QAE@ABV01@@Z
??0CCEaseExponentialIn@cocos2d@@QAE@XZ
??0CCEaseExponentialInOut@cocos2d@@QAE@ABV01@@Z
??0CCEaseExponentialInOut@cocos2d@@QAE@XZ
??0CCEaseExponentialOut@cocos2d@@QAE@ABV01@@Z
??0CCEaseExponentialOut@cocos2d@@QAE@XZ
??0CCEaseIn@cocos2d@@QAE@ABV01@@Z
??0CCEaseIn@cocos2d@@QAE@XZ
??0CCEaseInOut@cocos2d@@QAE@ABV01@@Z
??0CCEaseInOut@cocos2d@@QAE@XZ
??0CCEaseOut@cocos2d@@QAE@ABV01@@Z
??0CCEaseOut@cocos2d@@QAE@XZ
??0CCEaseRateAction@cocos2d@@QAE@ABV01@@Z
??0CCEaseRateAction@cocos2d@@QAE@XZ
??0CCEaseSineIn@cocos2d@@QAE@ABV01@@Z
??0CCEaseSineIn@cocos2d@@QAE@XZ
??0CCEaseSineInOut@cocos2d@@QAE@ABV01@@Z
??0CCEaseSineInOut@cocos2d@@QAE@XZ
??0CCEaseSineOut@cocos2d@@QAE@ABV01@@Z
??0CCEaseSineOut@cocos2d@@QAE@XZ
??0CCEvent@cocos2d@@QAE@ABV01@@Z
??0CCEvent@cocos2d@@QAE@XZ
??0CCFadeIn@cocos2d@@QAE@ABV01@@Z
??0CCFadeIn@cocos2d@@QAE@XZ
??0CCFadeOut@cocos2d@@QAE@ABV01@@Z
??0CCFadeOut@cocos2d@@QAE@XZ
??0CCFadeOutBLTiles@cocos2d@@QAE@ABV01@@Z
??0CCFadeOutBLTiles@cocos2d@@QAE@XZ
??0CCFadeOutDownTiles@cocos2d@@QAE@ABV01@@Z
??0CCFadeOutDownTiles@cocos2d@@QAE@XZ
??0CCFadeOutTRTiles@cocos2d@@QAE@ABV01@@Z
??0CCFadeOutTRTiles@cocos2d@@QAE@XZ
??0CCFadeOutUpTiles@cocos2d@@QAE@ABV01@@Z
??0CCFadeOutUpTiles@cocos2d@@QAE@XZ
??0CCFadeTo@cocos2d@@QAE@ABV01@@Z
??0CCFadeTo@cocos2d@@QAE@XZ
??0CCFileUtils@cocos2d@@IAE@XZ
??0CCFileUtils@cocos2d@@QAE@ABV01@@Z
??0CCFileUtilsWin32@cocos2d@@AAE@XZ
??0CCFileUtilsWin32@cocos2d@@QAE@ABV01@@Z
??0CCFiniteTimeAction@cocos2d@@QAE@ABV01@@Z
??0CCFiniteTimeAction@cocos2d@@QAE@XZ
??0CCFlipX3D@cocos2d@@QAE@ABV01@@Z
??0CCFlipX3D@cocos2d@@QAE@XZ
??0CCFlipX@cocos2d@@QAE@ABV01@@Z
??0CCFlipX@cocos2d@@QAE@XZ
??0CCFlipY3D@cocos2d@@QAE@ABV01@@Z
??0CCFlipY3D@cocos2d@@QAE@XZ
??0CCFlipY@cocos2d@@QAE@ABV01@@Z
??0CCFlipY@cocos2d@@QAE@XZ
??0CCFloat@cocos2d@@QAE@ABV01@@Z
??0CCFloat@cocos2d@@QAE@M@Z
??0CCFollow@cocos2d@@QAE@ABV01@@Z
??0CCFollow@cocos2d@@QAE@XZ
??0CCGLProgram@cocos2d@@QAE@ABV01@@Z
??0CCGLProgram@cocos2d@@QAE@XZ
??0CCGrid3D@cocos2d@@QAE@ABV01@@Z
??0CCGrid3D@cocos2d@@QAE@XZ
??0CCGrid3DAction@cocos2d@@QAE@ABV01@@Z
??0CCGrid3DAction@cocos2d@@QAE@XZ
??0CCGridAction@cocos2d@@QAE@ABV01@@Z
??0CCGridAction@cocos2d@@QAE@XZ
??0CCGridBase@cocos2d@@QAE@ABV01@@Z
??0CCGridBase@cocos2d@@QAE@XZ
??0CCHide@cocos2d@@QAE@ABV01@@Z
??0CCHide@cocos2d@@QAE@XZ
??0CCIMEDelegate@cocos2d@@IAE@XZ
??0CCIMEDelegate@cocos2d@@QAE@ABV01@@Z
??0CCIMEDispatcher@cocos2d@@AAE@XZ
??0CCImage@cocos2d@@QAE@XZ
??0CCInteger@cocos2d@@QAE@ABV01@@Z
??0CCInteger@cocos2d@@QAE@H@Z
??0CCJumpBy@cocos2d@@QAE@ABV01@@Z
??0CCJumpBy@cocos2d@@QAE@XZ
??0CCJumpTiles3D@cocos2d@@QAE@ABV01@@Z
??0CCJumpTiles3D@cocos2d@@QAE@XZ
??0CCJumpTo@cocos2d@@QAE@ABV01@@Z
??0CCJumpTo@cocos2d@@QAE@XZ
??0CCKeyboardDelegate@cocos2d@@QAE@ABV01@@Z
??0CCKeyboardDelegate@cocos2d@@QAE@XZ
??0CCKeyboardDispatcher@cocos2d@@QAE@ABV01@@Z
??0CCKeyboardDispatcher@cocos2d@@QAE@XZ
??0CCKeyboardHandler@cocos2d@@QAE@ABV01@@Z
??0CCKeyboardHandler@cocos2d@@QAE@XZ
??0CCKeypadDelegate@cocos2d@@QAE@ABV01@@Z
??0CCKeypadDelegate@cocos2d@@QAE@XZ
??0CCKeypadDispatcher@cocos2d@@QAE@ABV01@@Z
??0CCKeypadDispatcher@cocos2d@@QAE@XZ
??0CCKeypadHandler@cocos2d@@QAE@ABV01@@Z
??0CCKeypadHandler@cocos2d@@QAE@XZ
??0CCLabelAtlas@cocos2d@@QAE@ABV01@@Z
??0CCLabelAtlas@cocos2d@@QAE@XZ
??0CCLabelBMFont@cocos2d@@QAE@ABV01@@Z
??0CCLabelBMFont@cocos2d@@QAE@XZ
??0CCLabelProtocol@cocos2d@@QAE@ABV01@@Z
??0CCLabelProtocol@cocos2d@@QAE@XZ
??0CCLabelTTF@cocos2d@@QAE@ABV01@@Z
??0CCLabelTTF@cocos2d@@QAE@XZ
??0CCLayer@cocos2d@@QAE@ABV01@@Z
??0CCLayer@cocos2d@@QAE@XZ
??0CCLayerColor@cocos2d@@QAE@ABV01@@Z
??0CCLayerColor@cocos2d@@QAE@XZ
??0CCLayerGradient@cocos2d@@QAE@ABV01@@Z
??0CCLayerGradient@cocos2d@@QAE@XZ
??0CCLayerMultiplex@cocos2d@@QAE@ABV01@@Z
??0CCLayerMultiplex@cocos2d@@QAE@XZ
??0CCLayerRGBA@cocos2d@@QAE@ABV01@@Z
??0CCLayerRGBA@cocos2d@@QAE@XZ
??0CCLens3D@cocos2d@@QAE@ABV01@@Z
??0CCLens3D@cocos2d@@QAE@XZ
??0CCLiquid@cocos2d@@QAE@ABV01@@Z
??0CCLiquid@cocos2d@@QAE@XZ
??0CCMenu@cocos2d@@QAE@ABV01@@Z
??0CCMenu@cocos2d@@QAE@XZ
??0CCMenuItem@cocos2d@@QAE@ABV01@@Z
??0CCMenuItem@cocos2d@@QAE@XZ
??0CCMenuItemAtlasFont@cocos2d@@QAE@ABV01@@Z
??0CCMenuItemAtlasFont@cocos2d@@QAE@XZ
??0CCMenuItemFont@cocos2d@@QAE@ABV01@@Z
??0CCMenuItemFont@cocos2d@@QAE@XZ
??0CCMenuItemImage@cocos2d@@QAE@ABV01@@Z
??0CCMenuItemImage@cocos2d@@QAE@XZ
??0CCMenuItemLabel@cocos2d@@QAE@ABV01@@Z
??0CCMenuItemLabel@cocos2d@@QAE@XZ
??0CCMenuItemSprite@cocos2d@@QAE@ABV01@@Z
??0CCMenuItemSprite@cocos2d@@QAE@XZ
??0CCMenuItemToggle@cocos2d@@QAE@ABV01@@Z
??0CCMenuItemToggle@cocos2d@@QAE@XZ
??0CCMotionStreak@cocos2d@@QAE@ABV01@@Z
??0CCMotionStreak@cocos2d@@QAE@XZ
??0CCMouseDelegate@cocos2d@@QAE@ABV01@@Z
??0CCMouseDelegate@cocos2d@@QAE@XZ
??0CCMouseDispatcher@cocos2d@@QAE@ABV01@@Z
??0CCMouseDispatcher@cocos2d@@QAE@XZ
??0CCMouseHandler@cocos2d@@QAE@ABV01@@Z
??0CCMouseHandler@cocos2d@@QAE@XZ
??0CCMoveBy@cocos2d@@QAE@ABV01@@Z
??0CCMoveBy@cocos2d@@QAE@XZ
??0CCMoveTo@cocos2d@@QAE@ABV01@@Z
??0CCMoveTo@cocos2d@@QAE@XZ
??0CCNode@cocos2d@@QAE@ABV01@@Z
??0CCNode@cocos2d@@QAE@XZ
??0CCNodeRGBA@cocos2d@@QAE@ABV01@@Z
??0CCNodeRGBA@cocos2d@@QAE@XZ
??0CCNotificationCenter@cocos2d@@QAE@ABV01@@Z
??0CCNotificationCenter@cocos2d@@QAE@XZ
??0CCNotificationObserver@cocos2d@@QAE@ABV01@@Z
??0CCNotificationObserver@cocos2d@@QAE@PAVCCObject@1@P821@AEX0@ZPBD0@Z
??0CCObject@cocos2d@@QAE@ABV01@@Z
??0CCObject@cocos2d@@QAE@XZ
??0CCOrbitCamera@cocos2d@@QAE@ABV01@@Z
??0CCOrbitCamera@cocos2d@@QAE@XZ
??0CCPageTurn3D@cocos2d@@QAE@ABV01@@Z
??0CCPageTurn3D@cocos2d@@QAE@XZ
??0CCParallaxNode@cocos2d@@QAE@ABV01@@Z
??0CCParallaxNode@cocos2d@@QAE@XZ
??0CCParticleBatchNode@cocos2d@@QAE@ABV01@@Z
??0CCParticleBatchNode@cocos2d@@QAE@XZ
??0CCParticleExplosion@cocos2d@@QAE@ABV01@@Z
??0CCParticleExplosion@cocos2d@@QAE@XZ
??0CCParticleFire@cocos2d@@QAE@ABV01@@Z
??0CCParticleFire@cocos2d@@QAE@XZ
??0CCParticleFireworks@cocos2d@@QAE@ABV01@@Z
??0CCParticleFireworks@cocos2d@@QAE@XZ
??0CCParticleFlower@cocos2d@@QAE@ABV01@@Z
??0CCParticleFlower@cocos2d@@QAE@XZ
??0CCParticleGalaxy@cocos2d@@QAE@ABV01@@Z
??0CCParticleGalaxy@cocos2d@@QAE@XZ
??0CCParticleMeteor@cocos2d@@QAE@ABV01@@Z
??0CCParticleMeteor@cocos2d@@QAE@XZ
??0CCParticleRain@cocos2d@@QAE@ABV01@@Z
??0CCParticleRain@cocos2d@@QAE@XZ
??0CCParticleSmoke@cocos2d@@QAE@ABV01@@Z
??0CCParticleSmoke@cocos2d@@QAE@XZ
??0CCParticleSnow@cocos2d@@QAE@ABV01@@Z
??0CCParticleSnow@cocos2d@@QAE@XZ
??0CCParticleSpiral@cocos2d@@QAE@ABV01@@Z
??0CCParticleSpiral@cocos2d@@QAE@XZ
??0CCParticleSun@cocos2d@@QAE@ABV01@@Z
??0CCParticleSun@cocos2d@@QAE@XZ
??0CCParticleSystem@cocos2d@@QAE@ABV01@@Z
??0CCParticleSystem@cocos2d@@QAE@XZ
??0CCParticleSystemQuad@cocos2d@@QAE@ABV01@@Z
??0CCParticleSystemQuad@cocos2d@@QAE@XZ
??0CCPlace@cocos2d@@QAE@ABV01@@Z
??0CCPlace@cocos2d@@QAE@XZ
??0CCPoint@cocos2d@@QAE@ABV01@@Z
??0CCPoint@cocos2d@@QAE@ABVCCSize@1@@Z
??0CCPoint@cocos2d@@QAE@MM@Z
??0CCPoint@cocos2d@@QAE@XZ
??0CCPointArray@cocos2d@@QAE@ABV01@@Z
??0CCPointArray@cocos2d@@QAE@XZ
??0CCPoolManager@cocos2d@@QAE@XZ
??0CCPrettyPrinter@cocos2d@@QAE@ABV01@@Z
??0CCPrettyPrinter@cocos2d@@QAE@H@Z
??0CCProfiler@cocos2d@@QAE@ABV01@@Z
??0CCProfiler@cocos2d@@QAE@XZ
??0CCProgressFromTo@cocos2d@@QAE@ABV01@@Z
??0CCProgressFromTo@cocos2d@@QAE@XZ
??0CCProgressTimer@cocos2d@@QAE@ABV01@@Z
??0CCProgressTimer@cocos2d@@QAE@XZ
??0CCProgressTo@cocos2d@@QAE@ABV01@@Z
??0CCProgressTo@cocos2d@@QAE@XZ
??0CCRGBAProtocol@cocos2d@@QAE@ABV01@@Z
??0CCRGBAProtocol@cocos2d@@QAE@XZ
??0CCRect@cocos2d@@QAE@ABV01@@Z
??0CCRect@cocos2d@@QAE@MMMM@Z
??0CCRect@cocos2d@@QAE@XZ
??0CCRemoveSelf@cocos2d@@QAE@ABV01@@Z
??0CCRemoveSelf@cocos2d@@QAE@XZ
??0CCRenderTexture@cocos2d@@QAE@ABV01@@Z
??0CCRenderTexture@cocos2d@@QAE@XZ
??0CCRepeat@cocos2d@@QAE@ABV01@@Z
??0CCRepeat@cocos2d@@QAE@XZ
??0CCRepeatForever@cocos2d@@QAE@ABV01@@Z
??0CCRepeatForever@cocos2d@@QAE@XZ
??0CCReuseGrid@cocos2d@@QAE@ABV01@@Z
??0CCReuseGrid@cocos2d@@QAE@XZ
??0CCReverseTime@cocos2d@@QAE@ABV01@@Z
??0CCReverseTime@cocos2d@@QAE@XZ
??0CCRipple3D@cocos2d@@QAE@ABV01@@Z
??0CCRipple3D@cocos2d@@QAE@XZ
??0CCRotateBy@cocos2d@@QAE@ABV01@@Z
??0CCRotateBy@cocos2d@@QAE@XZ
??0CCRotateTo@cocos2d@@QAE@ABV01@@Z
??0CCRotateTo@cocos2d@@QAE@XZ
??0CCSAXDelegator@cocos2d@@QAE@ABV01@@Z
??0CCSAXDelegator@cocos2d@@QAE@XZ
??0CCSAXParser@cocos2d@@QAE@XZ
??0CCScaleBy@cocos2d@@QAE@ABV01@@Z
??0CCScaleBy@cocos2d@@QAE@XZ
??0CCScaleTo@cocos2d@@QAE@ABV01@@Z
??0CCScaleTo@cocos2d@@QAE@XZ
??0CCScene@cocos2d@@QAE@ABV01@@Z
??0CCScene@cocos2d@@QAE@XZ
??0CCSceneTransitionDelegate@cocos2d@@QAE@ABV01@@Z
??0CCSceneTransitionDelegate@cocos2d@@QAE@XZ
??0CCScheduler@cocos2d@@QAE@ABV01@@Z
??0CCScheduler@cocos2d@@QAE@XZ
??0CCScriptEngineManager@cocos2d@@AAE@XZ
??0CCScriptEngineProtocol@cocos2d@@QAE@ABV01@@Z
??0CCScriptEngineProtocol@cocos2d@@QAE@XZ
??0CCSequence@cocos2d@@QAE@ABV01@@Z
??0CCSequence@cocos2d@@QAE@XZ
??0CCSet@cocos2d@@QAE@ABV01@@Z
??0CCSet@cocos2d@@QAE@XZ
??0CCShaderCache@cocos2d@@QAE@ABV01@@Z
??0CCShaderCache@cocos2d@@QAE@XZ
??0CCShaky3D@cocos2d@@QAE@ABV01@@Z
??0CCShaky3D@cocos2d@@QAE@XZ
??0CCShakyTiles3D@cocos2d@@QAE@ABV01@@Z
??0CCShakyTiles3D@cocos2d@@QAE@XZ
??0CCShatteredTiles3D@cocos2d@@QAE@ABV01@@Z
??0CCShatteredTiles3D@cocos2d@@QAE@XZ
??0CCShow@cocos2d@@QAE@ABV01@@Z
??0CCShow@cocos2d@@QAE@XZ
??0CCShuffleTiles@cocos2d@@QAE@ABV01@@Z
??0CCShuffleTiles@cocos2d@@QAE@XZ
??0CCSize@cocos2d@@QAE@ABV01@@Z
??0CCSize@cocos2d@@QAE@ABVCCPoint@1@@Z
??0CCSize@cocos2d@@QAE@MM@Z
??0CCSize@cocos2d@@QAE@XZ
??0CCSkewBy@cocos2d@@QAE@ABV01@@Z
??0CCSkewBy@cocos2d@@QAE@XZ
??0CCSkewTo@cocos2d@@QAE@ABV01@@Z
??0CCSkewTo@cocos2d@@QAE@XZ
??0CCSpawn@cocos2d@@QAE@ABV01@@Z
??0CCSpawn@cocos2d@@QAE@XZ
??0CCSpeed@cocos2d@@QAE@ABV01@@Z
??0CCSpeed@cocos2d@@QAE@XZ
??0CCSplitCols@cocos2d@@QAE@ABV01@@Z
??0CCSplitCols@cocos2d@@QAE@XZ
??0CCSplitRows@cocos2d@@QAE@ABV01@@Z
??0CCSplitRows@cocos2d@@QAE@XZ
??0CCSprite@cocos2d@@QAE@ABV01@@Z
??0CCSprite@cocos2d@@QAE@XZ
??0CCSpriteBatchNode@cocos2d@@QAE@ABV01@@Z
??0CCSpriteBatchNode@cocos2d@@QAE@XZ
??0CCSpriteExtra@cocos2d@@QAE@ABV01@@Z
??0CCSpriteExtra@cocos2d@@QAE@XZ
??0CCSpriteFrame@cocos2d@@QAE@ABV01@@Z
??0CCSpriteFrame@cocos2d@@QAE@XZ
??0CCSpriteFrameCache@cocos2d@@IAE@XZ
??0CCSpriteFrameCache@cocos2d@@QAE@ABV01@@Z
??0CCStandardTouchDelegate@cocos2d@@QAE@ABV01@@Z
??0CCStandardTouchDelegate@cocos2d@@QAE@XZ
??0CCStandardTouchHandler@cocos2d@@QAE@ABV01@@Z
??0CCStandardTouchHandler@cocos2d@@QAE@XZ
??0CCStopGrid@cocos2d@@QAE@ABV01@@Z
??0CCStopGrid@cocos2d@@QAE@XZ
??0CCString@cocos2d@@QAE@ABV01@@Z
??0CCString@cocos2d@@QAE@ABV?$basic_string@DU?$char_traits@D@std@@V?$allocator@D@2@@std@@@Z
??0CCString@cocos2d@@QAE@PBD@Z
??0CCString@cocos2d@@QAE@XZ
??0CCTMXLayer@cocos2d@@QAE@ABV01@@Z
??0CCTMXLayer@cocos2d@@QAE@XZ
??0CCTMXLayerInfo@cocos2d@@QAE@ABV01@@Z
??0CCTMXLayerInfo@cocos2d@@QAE@XZ
??0CCTMXMapInfo@cocos2d@@QAE@ABV01@@Z
??0CCTMXMapInfo@cocos2d@@QAE@XZ
??0CCTMXObjectGroup@cocos2d@@QAE@ABV01@@Z
??0CCTMXObjectGroup@cocos2d@@QAE@XZ
??0CCTMXTiledMap@cocos2d@@QAE@ABV01@@Z
??0CCTMXTiledMap@cocos2d@@QAE@XZ
??0CCTMXTilesetInfo@cocos2d@@QAE@ABV01@@Z
??0CCTMXTilesetInfo@cocos2d@@QAE@XZ
??0CCTargetedAction@cocos2d@@QAE@ABV01@@Z
??0CCTargetedAction@cocos2d@@QAE@XZ
??0CCTargetedTouchDelegate@cocos2d@@QAE@ABV01@@Z
??0CCTargetedTouchDelegate@cocos2d@@QAE@XZ
??0CCTargetedTouchHandler@cocos2d@@QAE@ABV01@@Z
??0CCTargetedTouchHandler@cocos2d@@QAE@XZ
??0CCTextFieldDelegate@cocos2d@@QAE@ABV01@@Z
??0CCTextFieldDelegate@cocos2d@@QAE@XZ
??0CCTextFieldTTF@cocos2d@@QAE@ABV01@@Z
??0CCTextFieldTTF@cocos2d@@QAE@XZ
??0CCTexture2D@cocos2d@@QAE@ABV01@@Z
??0CCTexture2D@cocos2d@@QAE@XZ
??0CCTextureAtlas@cocos2d@@QAE@ABV01@@Z
??0CCTextureAtlas@cocos2d@@QAE@XZ
??0CCTextureCache@cocos2d@@QAE@ABV01@@Z
??0CCTextureCache@cocos2d@@QAE@XZ
??0CCTextureETC@cocos2d@@QAE@ABV01@@Z
??0CCTextureETC@cocos2d@@QAE@XZ
??0CCTextureProtocol@cocos2d@@QAE@ABV01@@Z
??0CCTextureProtocol@cocos2d@@QAE@XZ
??0CCThread@cocos2d@@QAE@XZ
??0CCTileMapAtlas@cocos2d@@QAE@ABV01@@Z
??0CCTileMapAtlas@cocos2d@@QAE@XZ
??0CCTiledGrid3D@cocos2d@@QAE@ABV01@@Z
??0CCTiledGrid3D@cocos2d@@QAE@XZ
??0CCTiledGrid3DAction@cocos2d@@QAE@ABV01@@Z
??0CCTiledGrid3DAction@cocos2d@@QAE@XZ
??0CCTimer@cocos2d@@QAE@ABV01@@Z
??0CCTimer@cocos2d@@QAE@XZ
??0CCTintBy@cocos2d@@QAE@ABV01@@Z
??0CCTintBy@cocos2d@@QAE@XZ
??0CCTintTo@cocos2d@@QAE@ABV01@@Z
??0CCTintTo@cocos2d@@QAE@XZ
??0CCToggleVisibility@cocos2d@@QAE@ABV01@@Z
??0CCToggleVisibility@cocos2d@@QAE@XZ
??0CCTouch@cocos2d@@QAE@ABV01@@Z
??0CCTouch@cocos2d@@QAE@XZ
??0CCTouchDelegate@cocos2d@@QAE@ABV01@@Z
??0CCTouchDelegate@cocos2d@@QAE@XZ
??0CCTouchDispatcher@cocos2d@@QAE@ABV01@@Z
??0CCTouchDispatcher@cocos2d@@QAE@XZ
??0CCTouchHandler@cocos2d@@QAE@ABV01@@Z
??0CCTouchHandler@cocos2d@@QAE@XZ
??0CCTransitionCrossFade@cocos2d@@QAE@ABV01@@Z
??0CCTransitionCrossFade@cocos2d@@QAE@XZ
??0CCTransitionEaseScene@cocos2d@@QAE@ABV01@@Z
??0CCTransitionEaseScene@cocos2d@@QAE@XZ
??0CCTransitionFade@cocos2d@@QAE@ABV01@@Z
??0CCTransitionFade@cocos2d@@QAE@XZ
??0CCTransitionFadeBL@cocos2d@@QAE@ABV01@@Z
??0CCTransitionFadeBL@cocos2d@@QAE@XZ
??0CCTransitionFadeDown@cocos2d@@QAE@ABV01@@Z
??0CCTransitionFadeDown@cocos2d@@QAE@XZ
??0CCTransitionFadeTR@cocos2d@@QAE@ABV01@@Z
??0CCTransitionFadeTR@cocos2d@@QAE@XZ
??0CCTransitionFadeUp@cocos2d@@QAE@ABV01@@Z
??0CCTransitionFadeUp@cocos2d@@QAE@XZ
??0CCTransitionFlipAngular@cocos2d@@QAE@ABV01@@Z
??0CCTransitionFlipAngular@cocos2d@@QAE@XZ
??0CCTransitionFlipX@cocos2d@@QAE@ABV01@@Z
??0CCTransitionFlipX@cocos2d@@QAE@XZ
??0CCTransitionFlipY@cocos2d@@QAE@ABV01@@Z
??0CCTransitionFlipY@cocos2d@@QAE@XZ
??0CCTransitionJumpZoom@cocos2d@@QAE@ABV01@@Z
??0CCTransitionJumpZoom@cocos2d@@QAE@XZ
??0CCTransitionMoveInB@cocos2d@@QAE@ABV01@@Z
??0CCTransitionMoveInB@cocos2d@@QAE@XZ
??0CCTransitionMoveInL@cocos2d@@QAE@ABV01@@Z
??0CCTransitionMoveInL@cocos2d@@QAE@XZ
??0CCTransitionMoveInR@cocos2d@@QAE@ABV01@@Z
??0CCTransitionMoveInR@cocos2d@@QAE@XZ
??0CCTransitionMoveInT@cocos2d@@QAE@ABV01@@Z
??0CCTransitionMoveInT@cocos2d@@QAE@XZ
??0CCTransitionPageTurn@cocos2d@@QAE@ABV01@@Z
??0CCTransitionPageTurn@cocos2d@@QAE@XZ
??0CCTransitionProgress@cocos2d@@QAE@ABV01@@Z
??0CCTransitionProgress@cocos2d@@QAE@XZ
??0CCTransitionProgressHorizontal@cocos2d@@QAE@ABV01@@Z
??0CCTransitionProgressHorizontal@cocos2d@@QAE@XZ
??0CCTransitionProgressInOut@cocos2d@@QAE@ABV01@@Z
??0CCTransitionProgressInOut@cocos2d@@QAE@XZ
??0CCTransitionProgressOutIn@cocos2d@@QAE@ABV01@@Z
??0CCTransitionProgressOutIn@cocos2d@@QAE@XZ
??0CCTransitionProgressRadialCCW@cocos2d@@QAE@ABV01@@Z
??0CCTransitionProgressRadialCCW@cocos2d@@QAE@XZ
??0CCTransitionProgressRadialCW@cocos2d@@QAE@ABV01@@Z
??0CCTransitionProgressRadialCW@cocos2d@@QAE@XZ
??0CCTransitionProgressVertical@cocos2d@@QAE@ABV01@@Z
??0CCTransitionProgressVertical@cocos2d@@QAE@XZ
??0CCTransitionRotoZoom@cocos2d@@QAE@ABV01@@Z
??0CCTransitionRotoZoom@cocos2d@@QAE@XZ
??0CCTransitionScene@cocos2d@@QAE@ABV01@@Z
??0CCTransitionScene@cocos2d@@QAE@XZ
??0CCTransitionSceneOriented@cocos2d@@QAE@ABV01@@Z
??0CCTransitionSceneOriented@cocos2d@@QAE@XZ
??0CCTransitionShrinkGrow@cocos2d@@QAE@ABV01@@Z
??0CCTransitionShrinkGrow@cocos2d@@QAE@XZ
??0CCTransitionSlideInB@cocos2d@@QAE@ABV01@@Z
??0CCTransitionSlideInB@cocos2d@@QAE@XZ
??0CCTransitionSlideInL@cocos2d@@QAE@ABV01@@Z
??0CCTransitionSlideInL@cocos2d@@QAE@XZ
??0CCTransitionSlideInR@cocos2d@@QAE@ABV01@@Z
??0CCTransitionSlideInR@cocos2d@@QAE@XZ
??0CCTransitionSlideInT@cocos2d@@QAE@ABV01@@Z
??0CCTransitionSlideInT@cocos2d@@QAE@XZ
??0CCTransitionSplitCols@cocos2d@@QAE@ABV01@@Z
??0CCTransitionSplitCols@cocos2d@@QAE@XZ
??0CCTransitionSplitRows@cocos2d@@QAE@ABV01@@Z
??0CCTransitionSplitRows@cocos2d@@QAE@XZ
??0CCTransitionTurnOffTiles@cocos2d@@QAE@ABV01@@Z
??0CCTransitionTurnOffTiles@cocos2d@@QAE@XZ
??0CCTransitionZoomFlipAngular@cocos2d@@QAE@ABV01@@Z
??0CCTransitionZoomFlipAngular@cocos2d@@QAE@XZ
??0CCTransitionZoomFlipX@cocos2d@@QAE@ABV01@@Z
??0CCTransitionZoomFlipX@cocos2d@@QAE@XZ
??0CCTransitionZoomFlipY@cocos2d@@QAE@ABV01@@Z
??0CCTransitionZoomFlipY@cocos2d@@QAE@XZ
??0CCTurnOffTiles@cocos2d@@QAE@ABV01@@Z
??0CCTurnOffTiles@cocos2d@@QAE@XZ
??0CCTwirl@cocos2d@@QAE@ABV01@@Z
??0CCTwirl@cocos2d@@QAE@XZ
??0CCUserDefault@cocos2d@@AAE@XZ
??0CCWaves3D@cocos2d@@QAE@ABV01@@Z
??0CCWaves3D@cocos2d@@QAE@XZ
??0CCWaves@cocos2d@@QAE@ABV01@@Z
??0CCWaves@cocos2d@@QAE@XZ
??0CCWavesTiles3D@cocos2d@@QAE@ABV01@@Z
??0CCWavesTiles3D@cocos2d@@QAE@XZ
??0CCZone@cocos2d@@QAE@PAVCCObject@1@@Z
??0DS_Dictionary@@QAE@XZ
??0EGLTouchDelegate@cocos2d@@QAE@ABV01@@Z
??0EGLTouchDelegate@cocos2d@@QAE@XZ
??0FormatError@fmt@@QAE@ABV01@@Z
??0FormatError@fmt@@QAE@ABV?$basic_string@DU?$char_traits@D@std@@V?$allocator@D@2@@std@@@Z
??0FormatInt@fmt@@QAE@H@Z
??0FormatInt@fmt@@QAE@I@Z
??0FormatInt@fmt@@QAE@J@Z
??0FormatInt@fmt@@QAE@K@Z
??0FormatInt@fmt@@QAE@_J@Z
??0FormatInt@fmt@@QAE@_K@Z
??0MemPool@tinyxml2@@QAE@ABV01@@Z
??0MemPool@tinyxml2@@QAE@XZ
??0ObjectDecoder@@QAE@ABV0@@Z
??0ObjectDecoder@@QAE@XZ
??0RuntimeError@internal@fmt@@IAE@XZ
??0RuntimeError@internal@fmt@@QAE@ABV012@@Z
??0StrPair@tinyxml2@@QAE@XZ
??0SystemError@fmt@@IAE@XZ
??0SystemError@fmt@@QAE@ABV01@@Z
??0SystemError@fmt@@QAE@HV?$BasicStringRef@D@1@@Z
??0UTF16ToUTF8@internal@fmt@@QAE@V?$BasicStringRef@_W@2@@Z
??0UTF16ToUTF8@internal@fmt@@QAE@XZ
??0UTF8ToUTF16@internal@fmt@@QAE@V?$BasicStringRef@D@2@@Z
??0WindowsError@fmt@@QAE@ABV01@@Z
??0WindowsError@fmt@@QAE@HV?$BasicStringRef@D@1@@Z
??0XMLAttribute@tinyxml2@@AAE@XZ
??0XMLComment@tinyxml2@@IAE@PAVXMLDocument@1@@Z
??0XMLConstHandle@tinyxml2@@QAE@ABV01@@Z
??0XMLConstHandle@tinyxml2@@QAE@ABVXMLNode@1@@Z
??0XMLConstHandle@tinyxml2@@QAE@PBVXMLNode@1@@Z
??0XMLDeclaration@tinyxml2@@IAE@PAVXMLDocument@1@@Z
??0XMLDocument@tinyxml2@@QAE@_NW4Whitespace@1@@Z
??0XMLElement@tinyxml2@@AAE@PAVXMLDocument@1@@Z
??0XMLHandle@tinyxml2@@QAE@AAVXMLNode@1@@Z
??0XMLHandle@tinyxml2@@QAE@ABV01@@Z
??0XMLHandle@tinyxml2@@QAE@PAVXMLNode@1@@Z
??0XMLNode@tinyxml2@@IAE@PAVXMLDocument@1@@Z
??0XMLPrinter@tinyxml2@@QAE@ABV01@@Z
??0XMLPrinter@tinyxml2@@QAE@PAU_iobuf@@_N@Z
??0XMLText@tinyxml2@@IAE@PAVXMLDocument@1@@Z
??0XMLUnknown@tinyxml2@@IAE@PAVXMLDocument@1@@Z
??0XMLVisitor@tinyxml2@@QAE@ABV01@@Z
??0XMLVisitor@tinyxml2@@QAE@XZ
??0xml_document@pugi@@QAE@XZ
??1?$BasicWriter@D@fmt@@QAE@XZ
??1?$BasicWriter@_W@fmt@@QAE@XZ
??1?$DynArray@D$0BE@@tinyxml2@@QAE@XZ
??1?$DynArray@PAUBlock@?$MemPoolT@$0CE@@tinyxml2@@$09@tinyxml2@@QAE@XZ
??1?$DynArray@PAUBlock@?$MemPoolT@$0CM@@tinyxml2@@$09@tinyxml2@@QAE@XZ
??1?$DynArray@PAUBlock@?$MemPoolT@$0DA@@tinyxml2@@$09@tinyxml2@@QAE@XZ
??1?$DynArray@PAUBlock@?$MemPoolT@$0DE@@tinyxml2@@$09@tinyxml2@@QAE@XZ
??1?$DynArray@PBD$09@tinyxml2@@QAE@XZ
??1?$MemPoolT@$0CE@@tinyxml2@@UAE@XZ
??1?$MemPoolT@$0CM@@tinyxml2@@UAE@XZ
??1?$MemPoolT@$0DA@@tinyxml2@@UAE@XZ
??1?$MemPoolT@$0DE@@tinyxml2@@UAE@XZ
??1CCAccelAmplitude@cocos2d@@UAE@XZ
??1CCAccelDeccelAmplitude@cocos2d@@UAE@XZ
??1CCAccelerometer@cocos2d@@QAE@XZ
??1CCAction@cocos2d@@UAE@XZ
??1CCActionCamera@cocos2d@@UAE@XZ
??1CCActionEase@cocos2d@@UAE@XZ
??1CCActionInstant@cocos2d@@UAE@XZ
??1CCActionInterval@cocos2d@@UAE@XZ
??1CCActionManager@cocos2d@@UAE@XZ
??1CCActionTween@cocos2d@@UAE@XZ
??1CCActionTweenDelegate@cocos2d@@UAE@XZ
??1CCAnimate@cocos2d@@UAE@XZ
??1CCAnimation@cocos2d@@UAE@XZ
??1CCAnimationCache@cocos2d@@UAE@XZ
??1CCAnimationFrame@cocos2d@@UAE@XZ
??1CCApplication@cocos2d@@UAE@XZ
??1CCApplicationProtocol@cocos2d@@UAE@XZ
??1CCArray@cocos2d@@UAE@XZ
??1CCAtlasNode@cocos2d@@UAE@XZ
??1CCAutoreleasePool@cocos2d@@UAE@XZ
??1CCBMFontConfiguration@cocos2d@@UAE@XZ
??1CCBezierBy@cocos2d@@UAE@XZ
??1CCBezierTo@cocos2d@@UAE@XZ
??1CCBlink@cocos2d@@UAE@XZ
??1CCBool@cocos2d@@UAE@XZ
??1CCCallFunc@cocos2d@@UAE@XZ
??1CCCallFuncN@cocos2d@@UAE@XZ
??1CCCallFuncND@cocos2d@@UAE@XZ
??1CCCallFuncO@cocos2d@@UAE@XZ
??1CCCamera@cocos2d@@UAE@XZ
??1CCCardinalSplineBy@cocos2d@@UAE@XZ
??1CCCardinalSplineTo@cocos2d@@UAE@XZ
??1CCCatmullRomBy@cocos2d@@UAE@XZ
??1CCCatmullRomTo@cocos2d@@UAE@XZ
??1CCClippingNode@cocos2d@@UAE@XZ
??1CCComponent@cocos2d@@UAE@XZ
??1CCComponentContainer@cocos2d@@UAE@XZ
??1CCConfiguration@cocos2d@@UAE@XZ
??1CCContentManager@@UAE@XZ
??1CCDataVisitor@cocos2d@@UAE@XZ
??1CCDeccelAmplitude@cocos2d@@UAE@XZ
??1CCDelayTime@cocos2d@@UAE@XZ
??1CCDictElement@cocos2d@@QAE@XZ
??1CCDictionary@cocos2d@@UAE@XZ
??1CCDirector@cocos2d@@UAE@XZ
??1CCDouble@cocos2d@@UAE@XZ
??1CCDrawNode@cocos2d@@UAE@XZ
??1CCEGLView@cocos2d@@MAE@XZ
??1CCEGLViewProtocol@cocos2d@@UAE@XZ
??1CCEaseBackIn@cocos2d@@UAE@XZ
??1CCEaseBackInOut@cocos2d@@UAE@XZ
??1CCEaseBackOut@cocos2d@@UAE@XZ
??1CCEaseBounce@cocos2d@@UAE@XZ
??1CCEaseBounceIn@cocos2d@@UAE@XZ
??1CCEaseBounceInOut@cocos2d@@UAE@XZ
??1CCEaseBounceOut@cocos2d@@UAE@XZ
??1CCEaseElastic@cocos2d@@UAE@XZ
??1CCEaseElasticIn@cocos2d@@UAE@XZ
??1CCEaseElasticInOut@cocos2d@@UAE@XZ
??1CCEaseElasticOut@cocos2d@@UAE@XZ
??1CCEaseExponentialIn@cocos2d@@UAE@XZ
??1CCEaseExponentialInOut@cocos2d@@UAE@XZ
??1CCEaseExponentialOut@cocos2d@@UAE@XZ
??1CCEaseIn@cocos2d@@UAE@XZ
??1CCEaseInOut@cocos2d@@UAE@XZ
??1CCEaseOut@cocos2d@@UAE@XZ
??1CCEaseRateAction@cocos2d@@UAE@XZ
??1CCEaseSineIn@cocos2d@@UAE@XZ
??1CCEaseSineInOut@cocos2d@@UAE@XZ
??1CCEaseSineOut@cocos2d@@UAE@XZ
??1CCEvent@cocos2d@@UAE@XZ
??1CCFadeIn@cocos2d@@UAE@XZ
??1CCFadeOut@cocos2d@@UAE@XZ
??1CCFadeOutBLTiles@cocos2d@@UAE@XZ
??1CCFadeOutDownTiles@cocos2d@@UAE@XZ
??1CCFadeOutTRTiles@cocos2d@@UAE@XZ
??1CCFadeOutUpTiles@cocos2d@@UAE@XZ
??1CCFadeTo@cocos2d@@UAE@XZ
??1CCFileUtils@cocos2d@@UAE@XZ
??1CCFileUtilsWin32@cocos2d@@UAE@XZ
??1CCFiniteTimeAction@cocos2d@@UAE@XZ
??1CCFlipX3D@cocos2d@@UAE@XZ
??1CCFlipX@cocos2d@@UAE@XZ
??1CCFlipY3D@cocos2d@@UAE@XZ
??1CCFlipY@cocos2d@@UAE@XZ
??1CCFloat@cocos2d@@UAE@XZ
??1CCFollow@cocos2d@@UAE@XZ
??1CCGLProgram@cocos2d@@UAE@XZ
??1CCGrid3D@cocos2d@@UAE@XZ
??1CCGrid3DAction@cocos2d@@UAE@XZ
??1CCGridAction@cocos2d@@UAE@XZ
??1CCGridBase@cocos2d@@UAE@XZ
??1CCHide@cocos2d@@UAE@XZ
??1CCIMEDelegate@cocos2d@@UAE@XZ
??1CCIMEDispatcher@cocos2d@@QAE@XZ
??1CCImage@cocos2d@@UAE@XZ
??1CCInteger@cocos2d@@UAE@XZ
??1CCJumpBy@cocos2d@@UAE@XZ
??1CCJumpTiles3D@cocos2d@@UAE@XZ
??1CCJumpTo@cocos2d@@UAE@XZ
??1CCKeyboardDispatcher@cocos2d@@UAE@XZ
??1CCKeyboardHandler@cocos2d@@UAE@XZ
??1CCKeypadDispatcher@cocos2d@@UAE@XZ
??1CCKeypadHandler@cocos2d@@UAE@XZ
??1CCLabelAtlas@cocos2d@@UAE@XZ
??1CCLabelBMFont@cocos2d@@UAE@XZ
??1CCLabelTTF@cocos2d@@UAE@XZ
??1CCLayer@cocos2d@@UAE@XZ
??1CCLayerColor@cocos2d@@UAE@XZ
??1CCLayerGradient@cocos2d@@UAE@XZ
??1CCLayerMultiplex@cocos2d@@UAE@XZ
??1CCLayerRGBA@cocos2d@@UAE@XZ
??1CCLens3D@cocos2d@@UAE@XZ
??1CCLiquid@cocos2d@@UAE@XZ
??1CCMenu@cocos2d@@UAE@XZ
??1CCMenuItem@cocos2d@@UAE@XZ
??1CCMenuItemAtlasFont@cocos2d@@UAE@XZ
??1CCMenuItemFont@cocos2d@@UAE@XZ
??1CCMenuItemImage@cocos2d@@UAE@XZ
??1CCMenuItemLabel@cocos2d@@UAE@XZ
??1CCMenuItemSprite@cocos2d@@UAE@XZ
??1CCMenuItemToggle@cocos2d@@UAE@XZ
??1CCMotionStreak@cocos2d@@UAE@XZ
??1CCMouseDispatcher@cocos2d@@UAE@XZ
??1CCMouseHandler@cocos2d@@UAE@XZ
??1CCMoveBy@cocos2d@@UAE@XZ
??1CCMoveTo@cocos2d@@UAE@XZ
??1CCNode@cocos2d@@UAE@XZ
??1CCNodeRGBA@cocos2d@@UAE@XZ
??1CCNotificationCenter@cocos2d@@UAE@XZ
??1CCNotificationObserver@cocos2d@@UAE@XZ
??1CCObject@cocos2d@@UAE@XZ
??1CCOrbitCamera@cocos2d@@UAE@XZ
??1CCPageTurn3D@cocos2d@@UAE@XZ
??1CCParallaxNode@cocos2d@@UAE@XZ
??1CCParticleBatchNode@cocos2d@@UAE@XZ
??1CCParticleExplosion@cocos2d@@UAE@XZ
??1CCParticleFire@cocos2d@@UAE@XZ
??1CCParticleFireworks@cocos2d@@UAE@XZ
??1CCParticleFlower@cocos2d@@UAE@XZ
??1CCParticleGalaxy@cocos2d@@UAE@XZ
??1CCParticleMeteor@cocos2d@@UAE@XZ
??1CCParticleRain@cocos2d@@UAE@XZ
??1CCParticleSmoke@cocos2d@@UAE@XZ
??1CCParticleSnow@cocos2d@@UAE@XZ
??1CCParticleSpiral@cocos2d@@UAE@XZ
??1CCParticleSun@cocos2d@@UAE@XZ
??1CCParticleSystem@cocos2d@@UAE@XZ
??1CCParticleSystemQuad@cocos2d@@UAE@XZ
??1CCPlace@cocos2d@@UAE@XZ
??1CCPointArray@cocos2d@@UAE@XZ
??1CCPoolManager@cocos2d@@QAE@XZ
??1CCPrettyPrinter@cocos2d@@UAE@XZ
??1CCProfiler@cocos2d@@UAE@XZ
??1CCProgressFromTo@cocos2d@@UAE@XZ
??1CCProgressTimer@cocos2d@@UAE@XZ
??1CCProgressTo@cocos2d@@UAE@XZ
??1CCRemoveSelf@cocos2d@@UAE@XZ
??1CCRenderTexture@cocos2d@@UAE@XZ
??1CCRepeat@cocos2d@@UAE@XZ
??1CCRepeatForever@cocos2d@@UAE@XZ
??1CCReuseGrid@cocos2d@@UAE@XZ
??1CCReverseTime@cocos2d@@UAE@XZ
??1CCRipple3D@cocos2d@@UAE@XZ
??1CCRotateBy@cocos2d@@UAE@XZ
??1CCRotateTo@cocos2d@@UAE@XZ
??1CCSAXParser@cocos2d@@QAE@XZ
??1CCScaleBy@cocos2d@@UAE@XZ
??1CCScaleTo@cocos2d@@UAE@XZ
??1CCScene@cocos2d@@UAE@XZ
??1CCScheduler@cocos2d@@UAE@XZ
??1CCScriptEngineManager@cocos2d@@QAE@XZ
??1CCScriptEngineProtocol@cocos2d@@UAE@XZ
??1CCSequence@cocos2d@@UAE@XZ
??1CCSet@cocos2d@@UAE@XZ
??1CCShaderCache@cocos2d@@UAE@XZ
??1CCShaky3D@cocos2d@@UAE@XZ
??1CCShakyTiles3D@cocos2d@@UAE@XZ
??1CCShatteredTiles3D@cocos2d@@UAE@XZ
??1CCShow@cocos2d@@UAE@XZ
??1CCShuffleTiles@cocos2d@@UAE@XZ
??1CCSkewBy@cocos2d@@UAE@XZ
??1CCSkewTo@cocos2d@@UAE@XZ
??1CCSpawn@cocos2d@@UAE@XZ
??1CCSpeed@cocos2d@@UAE@XZ
??1CCSplitCols@cocos2d@@UAE@XZ
??1CCSplitRows@cocos2d@@UAE@XZ
??1CCSprite@cocos2d@@UAE@XZ
??1CCSpriteBatchNode@cocos2d@@UAE@XZ
??1CCSpriteExtra@cocos2d@@UAE@XZ
??1CCSpriteFrame@cocos2d@@UAE@XZ
??1CCSpriteFrameCache@cocos2d@@UAE@XZ
??1CCStandardTouchDelegate@cocos2d@@UAE@XZ
??1CCStandardTouchHandler@cocos2d@@UAE@XZ
??1CCStopGrid@cocos2d@@UAE@XZ
??1CCString@cocos2d@@UAE@XZ
??1CCTMXLayer@cocos2d@@UAE@XZ
??1CCTMXLayerInfo@cocos2d@@UAE@XZ
??1CCTMXMapInfo@cocos2d@@UAE@XZ
??1CCTMXObjectGroup@cocos2d@@UAE@XZ
??1CCTMXTiledMap@cocos2d@@UAE@XZ
??1CCTMXTilesetInfo@cocos2d@@UAE@XZ
??1CCTargetedAction@cocos2d@@UAE@XZ
??1CCTargetedTouchDelegate@cocos2d@@UAE@XZ
??1CCTargetedTouchHandler@cocos2d@@UAE@XZ
??1CCTextFieldTTF@cocos2d@@UAE@XZ
??1CCTexture2D@cocos2d@@UAE@XZ
??1CCTextureAtlas@cocos2d@@UAE@XZ
??1CCTextureCache@cocos2d@@UAE@XZ
??1CCTextureETC@cocos2d@@UAE@XZ
??1CCThread@cocos2d@@QAE@XZ
??1CCTileMapAtlas@cocos2d@@UAE@XZ
??1CCTiledGrid3D@cocos2d@@UAE@XZ
??1CCTiledGrid3DAction@cocos2d@@UAE@XZ
??1CCTimer@cocos2d@@UAE@XZ
??1CCTintBy@cocos2d@@UAE@XZ
??1CCTintTo@cocos2d@@UAE@XZ
??1CCToggleVisibility@cocos2d@@UAE@XZ
??1CCTouch@cocos2d@@UAE@XZ
??1CCTouchDelegate@cocos2d@@UAE@XZ
??1CCTouchDispatcher@cocos2d@@UAE@XZ
??1CCTouchHandler@cocos2d@@UAE@XZ
??1CCTransitionCrossFade@cocos2d@@UAE@XZ
??1CCTransitionFade@cocos2d@@UAE@XZ
??1CCTransitionFadeBL@cocos2d@@UAE@XZ
??1CCTransitionFadeDown@cocos2d@@UAE@XZ
??1CCTransitionFadeTR@cocos2d@@UAE@XZ
??1CCTransitionFadeUp@cocos2d@@UAE@XZ
??1CCTransitionFlipAngular@cocos2d@@UAE@XZ
??1CCTransitionFlipX@cocos2d@@UAE@XZ
??1CCTransitionFlipY@cocos2d@@UAE@XZ
??1CCTransitionJumpZoom@cocos2d@@UAE@XZ
??1CCTransitionMoveInB@cocos2d@@UAE@XZ
??1CCTransitionMoveInL@cocos2d@@UAE@XZ
??1CCTransitionMoveInR@cocos2d@@UAE@XZ
??1CCTransitionMoveInT@cocos2d@@UAE@XZ
??1CCTransitionPageTurn@cocos2d@@UAE@XZ
??1CCTransitionProgress@cocos2d@@UAE@XZ
??1CCTransitionProgressHorizontal@cocos2d@@UAE@XZ
??1CCTransitionProgressInOut@cocos2d@@UAE@XZ
??1CCTransitionProgressOutIn@cocos2d@@UAE@XZ
??1CCTransitionProgressRadialCCW@cocos2d@@UAE@XZ
??1CCTransitionProgressRadialCW@cocos2d@@UAE@XZ
??1CCTransitionProgressVertical@cocos2d@@UAE@XZ
??1CCTransitionRotoZoom@cocos2d@@UAE@XZ
??1CCTransitionScene@cocos2d@@UAE@XZ
??1CCTransitionSceneOriented@cocos2d@@UAE@XZ
??1CCTransitionShrinkGrow@cocos2d@@UAE@XZ
??1CCTransitionSlideInB@cocos2d@@UAE@XZ
??1CCTransitionSlideInL@cocos2d@@UAE@XZ
??1CCTransitionSlideInR@cocos2d@@UAE@XZ
??1CCTransitionSlideInT@cocos2d@@UAE@XZ
??1CCTransitionSplitCols@cocos2d@@UAE@XZ
??1CCTransitionSplitRows@cocos2d@@UAE@XZ
??1CCTransitionTurnOffTiles@cocos2d@@UAE@XZ
??1CCTransitionZoomFlipAngular@cocos2d@@UAE@XZ
??1CCTransitionZoomFlipX@cocos2d@@UAE@XZ
??1CCTransitionZoomFlipY@cocos2d@@UAE@XZ
??1CCTurnOffTiles@cocos2d@@UAE@XZ
??1CCTwirl@cocos2d@@UAE@XZ
??1CCUserDefault@cocos2d@@QAE@XZ
??1CCWaves3D@cocos2d@@UAE@XZ
??1CCWaves@cocos2d@@UAE@XZ
??1CCWavesTiles3D@cocos2d@@UAE@XZ
??1DS_Dictionary@@QAE@XZ
??1EGLTouchDelegate@cocos2d@@UAE@XZ
??1FormatError@fmt@@UAE@XZ
??1MemPool@tinyxml2@@UAE@XZ
??1ObjectDecoder@@UAE@XZ
??1RuntimeError@internal@fmt@@UAE@XZ
??1StrPair@tinyxml2@@QAE@XZ
??1SystemError@fmt@@UAE@XZ
??1UTF16ToUTF8@internal@fmt@@QAE@XZ
??1UTF8ToUTF16@internal@fmt@@QAE@XZ
??1WindowsError@fmt@@UAE@XZ
??1XMLAttribute@tinyxml2@@EAE@XZ
??1XMLComment@tinyxml2@@MAE@XZ
??1XMLDeclaration@tinyxml2@@MAE@XZ
??1XMLDocument@tinyxml2@@UAE@XZ
??1XMLElement@tinyxml2@@EAE@XZ
??1XMLNode@tinyxml2@@MAE@XZ
??1XMLPrinter@tinyxml2@@UAE@XZ
??1XMLText@tinyxml2@@MAE@XZ
??1XMLUnknown@tinyxml2@@MAE@XZ
??1XMLVisitor@tinyxml2@@UAE@XZ
??1xml_document@pugi@@QAE@XZ
??4?$AlignTypeSpec@$0A@@fmt@@QAEAAU01@ABU01@@Z
??4?$BasicCharTraits@D@internal@fmt@@QAEAAV012@ABV012@@Z
??4?$BasicCharTraits@_W@internal@fmt@@QAEAAV012@ABV012@@Z
??4?$BasicStringRef@D@fmt@@QAEAAV01@ABV01@@Z
??4?$BasicStringRef@_W@fmt@@QAEAAV01@ABV01@@Z
??4?$CharTraits@D@internal@fmt@@QAEAAV012@ABV012@@Z
??4?$CharTraits@_W@internal@fmt@@QAEAAV012@ABV012@@Z
??4?$DynArray@D$0BE@@tinyxml2@@QAEAAV01@ABV01@@Z
??4?$DynArray@PAUBlock@?$MemPoolT@$0CE@@tinyxml2@@$09@tinyxml2@@QAEAAV01@ABV01@@Z
??4?$DynArray@PAUBlock@?$MemPoolT@$0CM@@tinyxml2@@$09@tinyxml2@@QAEAAV01@ABV01@@Z
??4?$DynArray@PAUBlock@?$MemPoolT@$0DA@@tinyxml2@@$09@tinyxml2@@QAEAAV01@ABV01@@Z
??4?$DynArray@PAUBlock@?$MemPoolT@$0DE@@tinyxml2@@$09@tinyxml2@@QAEAAV01@ABV01@@Z
??4?$DynArray@PBD$09@tinyxml2@@QAEAAV01@ABV01@@Z
??4?$IntFormatSpec@HU?$AlignTypeSpec@$0A@@fmt@@D@fmt@@QAEAAV01@ABV01@@Z
??4?$IntFormatSpec@HU?$TypeSpec@$0A@@fmt@@D@fmt@@QAEAAV01@ABV01@@Z
??4?$IntFormatSpec@HU?$TypeSpec@$0FI@@fmt@@D@fmt@@QAEAAV01@ABV01@@Z
??4?$IntFormatSpec@HU?$TypeSpec@$0GC@@fmt@@D@fmt@@QAEAAV01@ABV01@@Z
??4?$IntFormatSpec@HU?$TypeSpec@$0GP@@fmt@@D@fmt@@QAEAAV01@ABV01@@Z
??4?$IntFormatSpec@HU?$TypeSpec@$0HI@@fmt@@D@fmt@@QAEAAV01@ABV01@@Z
??4?$IntFormatSpec@IU?$AlignTypeSpec@$0A@@fmt@@D@fmt@@QAEAAV01@ABV01@@Z
??4?$IntFormatSpec@IU?$TypeSpec@$0FI@@fmt@@D@fmt@@QAEAAV01@ABV01@@Z
??4?$IntFormatSpec@IU?$TypeSpec@$0GC@@fmt@@D@fmt@@QAEAAV01@ABV01@@Z
??4?$IntFormatSpec@IU?$TypeSpec@$0GP@@fmt@@D@fmt@@QAEAAV01@ABV01@@Z
??4?$IntFormatSpec@IU?$TypeSpec@$0HI@@fmt@@D@fmt@@QAEAAV01@ABV01@@Z
??4?$IntFormatSpec@JU?$AlignTypeSpec@$0A@@fmt@@D@fmt@@QAEAAV01@ABV01@@Z
??4?$IntFormatSpec@JU?$TypeSpec@$0FI@@fmt@@D@fmt@@QAEAAV01@ABV01@@Z
??4?$IntFormatSpec@JU?$TypeSpec@$0GC@@fmt@@D@fmt@@QAEAAV01@ABV01@@Z
??4?$IntFormatSpec@JU?$TypeSpec@$0GP@@fmt@@D@fmt@@QAEAAV01@ABV01@@Z
??4?$IntFormatSpec@JU?$TypeSpec@$0HI@@fmt@@D@fmt@@QAEAAV01@ABV01@@Z
??4?$IntFormatSpec@KU?$AlignTypeSpec@$0A@@fmt@@D@fmt@@QAEAAV01@ABV01@@Z
??4?$IntFormatSpec@KU?$TypeSpec@$0FI@@fmt@@D@fmt@@QAEAAV01@ABV01@@Z
??4?$IntFormatSpec@KU?$TypeSpec@$0GC@@fmt@@D@fmt@@QAEAAV01@ABV01@@Z
??4?$IntFormatSpec@KU?$TypeSpec@$0GP@@fmt@@D@fmt@@QAEAAV01@ABV01@@Z
??4?$IntFormatSpec@KU?$TypeSpec@$0HI@@fmt@@D@fmt@@QAEAAV01@ABV01@@Z
??4?$IntFormatSpec@_JU?$AlignTypeSpec@$0A@@fmt@@D@fmt@@QAEAAV01@ABV01@@Z
??4?$IntFormatSpec@_JU?$TypeSpec@$0FI@@fmt@@D@fmt@@QAEAAV01@ABV01@@Z
??4?$IntFormatSpec@_JU?$TypeSpec@$0GC@@fmt@@D@fmt@@QAEAAV01@ABV01@@Z
??4?$IntFormatSpec@_JU?$TypeSpec@$0GP@@fmt@@D@fmt@@QAEAAV01@ABV01@@Z
??4?$IntFormatSpec@_JU?$TypeSpec@$0HI@@fmt@@D@fmt@@QAEAAV01@ABV01@@Z
??4?$IntFormatSpec@_KU?$AlignTypeSpec@$0A@@fmt@@D@fmt@@QAEAAV01@ABV01@@Z
??4?$IntFormatSpec@_KU?$TypeSpec@$0FI@@fmt@@D@fmt@@QAEAAV01@ABV01@@Z
??4?$IntFormatSpec@_KU?$TypeSpec@$0GC@@fmt@@D@fmt@@QAEAAV01@ABV01@@Z
??4?$IntFormatSpec@_KU?$TypeSpec@$0GP@@fmt@@D@fmt@@QAEAAV01@ABV01@@Z
??4?$IntFormatSpec@_KU?$TypeSpec@$0HI@@fmt@@D@fmt@@QAEAAV01@ABV01@@Z
??4?$MakeArg@D@internal@fmt@@QAEAAV012@ABV012@@Z
??4?$MemPoolT@$0CE@@tinyxml2@@QAEAAV01@ABV01@@Z
??4?$MemPoolT@$0CM@@tinyxml2@@QAEAAV01@ABV01@@Z
??4?$MemPoolT@$0DA@@tinyxml2@@QAEAAV01@ABV01@@Z
??4?$MemPoolT@$0DE@@tinyxml2@@QAEAAV01@ABV01@@Z
??4?$PrintfParser@D@internal@fmt@@QAEAAV012@ABV012@@Z
??4?$PrintfParser@_W@internal@fmt@@QAEAAV012@ABV012@@Z
??4?$StrFormatSpec@_W@fmt@@QAEAAV01@ABV01@@Z
??4?$TypeSpec@$0A@@fmt@@QAEAAU01@ABU01@@Z
??4?$TypeSpec@$0FI@@fmt@@QAEAAU01@ABU01@@Z
??4?$TypeSpec@$0GC@@fmt@@QAEAAU01@ABU01@@Z
??4?$TypeSpec@$0GP@@fmt@@QAEAAU01@ABU01@@Z
??4?$TypeSpec@$0HI@@fmt@@QAEAAU01@ABU01@@Z
??4ArgList@fmt@@QAEAAV01@ABV01@@Z
??4CCAccelAmplitude@cocos2d@@QAEAAV01@ABV01@@Z
??4CCAccelDeccelAmplitude@cocos2d@@QAEAAV01@ABV01@@Z
??4CCAccelerometer@cocos2d@@QAEAAV01@ABV01@@Z
??4CCAccelerometerDelegate@cocos2d@@QAEAAV01@ABV01@@Z
??4CCAction@cocos2d@@QAEAAV01@ABV01@@Z
??4CCActionCamera@cocos2d@@QAEAAV01@ABV01@@Z
??4CCActionEase@cocos2d@@QAEAAV01@ABV01@@Z
??4CCActionInstant@cocos2d@@QAEAAV01@ABV01@@Z
??4CCActionInterval@cocos2d@@QAEAAV01@ABV01@@Z
??4CCActionManager@cocos2d@@QAEAAV01@ABV01@@Z
??4CCActionTween@cocos2d@@QAEAAV01@ABV01@@Z
??4CCActionTweenDelegate@cocos2d@@QAEAAV01@ABV01@@Z
??4CCAnimate@cocos2d@@QAEAAV01@ABV01@@Z
??4CCAnimation@cocos2d@@QAEAAV01@ABV01@@Z
??4CCAnimationCache@cocos2d@@QAEAAV01@ABV01@@Z
??4CCAnimationFrame@cocos2d@@QAEAAV01@ABV01@@Z
??4CCApplication@cocos2d@@QAEAAV01@ABV01@@Z
??4CCApplicationProtocol@cocos2d@@QAEAAV01@ABV01@@Z
??4CCArray@cocos2d@@QAEAAV01@ABV01@@Z
??4CCAtlasNode@cocos2d@@QAEAAV01@ABV01@@Z
??4CCAutoreleasePool@cocos2d@@QAEAAV01@ABV01@@Z
??4CCBMFontConfiguration@cocos2d@@QAEAAV01@ABV01@@Z
??4CCBezierBy@cocos2d@@QAEAAV01@ABV01@@Z
??4CCBezierTo@cocos2d@@QAEAAV01@ABV01@@Z
??4CCBlendProtocol@cocos2d@@QAEAAV01@ABV01@@Z
??4CCBlink@cocos2d@@QAEAAV01@ABV01@@Z
??4CCBool@cocos2d@@QAEAAV01@ABV01@@Z
??4CCCallFunc@cocos2d@@QAEAAV01@ABV01@@Z
??4CCCallFuncN@cocos2d@@QAEAAV01@ABV01@@Z
??4CCCallFuncND@cocos2d@@QAEAAV01@ABV01@@Z
??4CCCallFuncO@cocos2d@@QAEAAV01@ABV01@@Z
??4CCCardinalSplineBy@cocos2d@@QAEAAV01@ABV01@@Z
??4CCCardinalSplineTo@cocos2d@@QAEAAV01@ABV01@@Z
??4CCCatmullRomBy@cocos2d@@QAEAAV01@ABV01@@Z
??4CCCatmullRomTo@cocos2d@@QAEAAV01@ABV01@@Z
??4CCClippingNode@cocos2d@@QAEAAV01@ABV01@@Z
??4CCComponent@cocos2d@@QAEAAV01@ABV01@@Z
??4CCComponentContainer@cocos2d@@QAEAAV01@ABV01@@Z
??4CCConfiguration@cocos2d@@QAEAAV01@ABV01@@Z
??4CCContentManager@@QAEAAV0@ABV0@@Z
??4CCCopying@cocos2d@@QAEAAV01@ABV01@@Z
??4CCDataVisitor@cocos2d@@QAEAAV01@ABV01@@Z
??4CCDeccelAmplitude@cocos2d@@QAEAAV01@ABV01@@Z
??4CCDelayTime@cocos2d@@QAEAAV01@ABV01@@Z
??4CCDevice@cocos2d@@QAEAAV01@ABV01@@Z
??4CCDictElement@cocos2d@@QAEAAV01@ABV01@@Z
??4CCDictionary@cocos2d@@QAEAAV01@ABV01@@Z
??4CCDirector@cocos2d@@QAEAAV01@ABV01@@Z
??4CCDirectorDelegate@cocos2d@@QAEAAV01@ABV01@@Z
??4CCDouble@cocos2d@@QAEAAV01@ABV01@@Z
??4CCDrawNode@cocos2d@@QAEAAV01@ABV01@@Z
??4CCEGLView@cocos2d@@QAEAAV01@ABV01@@Z
??4CCEGLViewProtocol@cocos2d@@QAEAAV01@ABV01@@Z
??4CCEaseBackIn@cocos2d@@QAEAAV01@ABV01@@Z
??4CCEaseBackInOut@cocos2d@@QAEAAV01@ABV01@@Z
??4CCEaseBackOut@cocos2d@@QAEAAV01@ABV01@@Z
??4CCEaseBounce@cocos2d@@QAEAAV01@ABV01@@Z
??4CCEaseBounceIn@cocos2d@@QAEAAV01@ABV01@@Z
??4CCEaseBounceInOut@cocos2d@@QAEAAV01@ABV01@@Z
??4CCEaseBounceOut@cocos2d@@QAEAAV01@ABV01@@Z
??4CCEaseElastic@cocos2d@@QAEAAV01@ABV01@@Z
??4CCEaseElasticIn@cocos2d@@QAEAAV01@ABV01@@Z
??4CCEaseElasticInOut@cocos2d@@QAEAAV01@ABV01@@Z
??4CCEaseElasticOut@cocos2d@@QAEAAV01@ABV01@@Z
??4CCEaseExponentialIn@cocos2d@@QAEAAV01@ABV01@@Z
??4CCEaseExponentialInOut@cocos2d@@QAEAAV01@ABV01@@Z
??4CCEaseExponentialOut@cocos2d@@QAEAAV01@ABV01@@Z
??4CCEaseIn@cocos2d@@QAEAAV01@ABV01@@Z
??4CCEaseInOut@cocos2d@@QAEAAV01@ABV01@@Z
??4CCEaseOut@cocos2d@@QAEAAV01@ABV01@@Z
??4CCEaseRateAction@cocos2d@@QAEAAV01@ABV01@@Z
??4CCEaseSineIn@cocos2d@@QAEAAV01@ABV01@@Z
??4CCEaseSineInOut@cocos2d@@QAEAAV01@ABV01@@Z
??4CCEaseSineOut@cocos2d@@QAEAAV01@ABV01@@Z
??4CCEvent@cocos2d@@QAEAAV01@ABV01@@Z
??4CCFadeIn@cocos2d@@QAEAAV01@ABV01@@Z
??4CCFadeOut@cocos2d@@QAEAAV01@ABV01@@Z
??4CCFadeOutBLTiles@cocos2d@@QAEAAV01@ABV01@@Z
??4CCFadeOutDownTiles@cocos2d@@QAEAAV01@ABV01@@Z
??4CCFadeOutTRTiles@cocos2d@@QAEAAV01@ABV01@@Z
??4CCFadeOutUpTiles@cocos2d@@QAEAAV01@ABV01@@Z
??4CCFadeTo@cocos2d@@QAEAAV01@ABV01@@Z
??4CCFileUtils@cocos2d@@QAEAAV01@ABV01@@Z
??4CCFileUtilsWin32@cocos2d@@QAEAAV01@ABV01@@Z
??4CCFiniteTimeAction@cocos2d@@QAEAAV01@ABV01@@Z
??4CCFlipX3D@cocos2d@@QAEAAV01@ABV01@@Z
??4CCFlipX@cocos2d@@QAEAAV01@ABV01@@Z
??4CCFlipY3D@cocos2d@@QAEAAV01@ABV01@@Z
??4CCFlipY@cocos2d@@QAEAAV01@ABV01@@Z
??4CCFloat@cocos2d@@QAEAAV01@ABV01@@Z
??4CCFollow@cocos2d@@QAEAAV01@ABV01@@Z
??4CCGLProgram@cocos2d@@QAEAAV01@ABV01@@Z
??4CCGrid3D@cocos2d@@QAEAAV01@ABV01@@Z
??4CCGrid3DAction@cocos2d@@QAEAAV01@ABV01@@Z
??4CCGridAction@cocos2d@@QAEAAV01@ABV01@@Z
??4CCGridBase@cocos2d@@QAEAAV01@ABV01@@Z
??4CCHide@cocos2d@@QAEAAV01@ABV01@@Z
??4CCIMEDelegate@cocos2d@@QAEAAV01@ABV01@@Z
??4CCIMEDispatcher@cocos2d@@QAEAAV01@ABV01@@Z
??4CCInteger@cocos2d@@QAEAAV01@ABV01@@Z
??4CCJumpBy@cocos2d@@QAEAAV01@ABV01@@Z
??4CCJumpTiles3D@cocos2d@@QAEAAV01@ABV01@@Z
??4CCJumpTo@cocos2d@@QAEAAV01@ABV01@@Z
??4CCKeyboardDelegate@cocos2d@@QAEAAV01@ABV01@@Z
??4CCKeyboardDispatcher@cocos2d@@QAEAAV01@ABV01@@Z
??4CCKeyboardHandler@cocos2d@@QAEAAV01@ABV01@@Z
??4CCKeypadDelegate@cocos2d@@QAEAAV01@ABV01@@Z
??4CCKeypadDispatcher@cocos2d@@QAEAAV01@ABV01@@Z
??4CCKeypadHandler@cocos2d@@QAEAAV01@ABV01@@Z
??4CCLabelAtlas@cocos2d@@QAEAAV01@ABV01@@Z
??4CCLabelBMFont@cocos2d@@QAEAAV01@ABV01@@Z
??4CCLabelProtocol@cocos2d@@QAEAAV01@ABV01@@Z
??4CCLabelTTF@cocos2d@@QAEAAV01@ABV01@@Z
??4CCLayer@cocos2d@@QAEAAV01@ABV01@@Z
??4CCLayerColor@cocos2d@@QAEAAV01@ABV01@@Z
??4CCLayerGradient@cocos2d@@QAEAAV01@ABV01@@Z
??4CCLayerMultiplex@cocos2d@@QAEAAV01@ABV01@@Z
??4CCLayerRGBA@cocos2d@@QAEAAV01@ABV01@@Z
??4CCLens3D@cocos2d@@QAEAAV01@ABV01@@Z
??4CCLiquid@cocos2d@@QAEAAV01@ABV01@@Z
??4CCMenu@cocos2d@@QAEAAV01@ABV01@@Z
??4CCMenuItem@cocos2d@@QAEAAV01@ABV01@@Z
??4CCMenuItemAtlasFont@cocos2d@@QAEAAV01@ABV01@@Z
??4CCMenuItemFont@cocos2d@@QAEAAV01@ABV01@@Z
??4CCMenuItemImage@cocos2d@@QAEAAV01@ABV01@@Z
??4CCMenuItemLabel@cocos2d@@QAEAAV01@ABV01@@Z
??4CCMenuItemSprite@cocos2d@@QAEAAV01@ABV01@@Z
??4CCMenuItemToggle@cocos2d@@QAEAAV01@ABV01@@Z
??4CCMotionStreak@cocos2d@@QAEAAV01@ABV01@@Z
??4CCMouseDelegate@cocos2d@@QAEAAV01@ABV01@@Z
??4CCMouseDispatcher@cocos2d@@QAEAAV01@ABV01@@Z
??4CCMouseHandler@cocos2d@@QAEAAV01@ABV01@@Z
??4CCMoveBy@cocos2d@@QAEAAV01@ABV01@@Z
??4CCMoveTo@cocos2d@@QAEAAV01@ABV01@@Z
??4CCNode@cocos2d@@QAEAAV01@ABV01@@Z
??4CCNodeRGBA@cocos2d@@QAEAAV01@ABV01@@Z
??4CCNotificationCenter@cocos2d@@QAEAAV01@ABV01@@Z
??4CCNotificationObserver@cocos2d@@QAEAAV01@ABV01@@Z
??4CCObject@cocos2d@@QAEAAV01@ABV01@@Z
??4CCOrbitCamera@cocos2d@@QAEAAV01@ABV01@@Z
??4CCPageTurn3D@cocos2d@@QAEAAV01@ABV01@@Z
??4CCParallaxNode@cocos2d@@QAEAAV01@ABV01@@Z
??4CCParticleBatchNode@cocos2d@@QAEAAV01@ABV01@@Z
??4CCParticleExplosion@cocos2d@@QAEAAV01@ABV01@@Z
??4CCParticleFire@cocos2d@@QAEAAV01@ABV01@@Z
??4CCParticleFireworks@cocos2d@@QAEAAV01@ABV01@@Z
??4CCParticleFlower@cocos2d@@QAEAAV01@ABV01@@Z
??4CCParticleGalaxy@cocos2d@@QAEAAV01@ABV01@@Z
??4CCParticleMeteor@cocos2d@@QAEAAV01@ABV01@@Z
??4CCParticleRain@cocos2d@@QAEAAV01@ABV01@@Z
??4CCParticleSmoke@cocos2d@@QAEAAV01@ABV01@@Z
??4CCParticleSnow@cocos2d@@QAEAAV01@ABV01@@Z
??4CCParticleSpiral@cocos2d@@QAEAAV01@ABV01@@Z
??4CCParticleSun@cocos2d@@QAEAAV01@ABV01@@Z
??4CCParticleSystem@cocos2d@@QAEAAV01@ABV01@@Z
??4CCParticleSystemQuad@cocos2d@@QAEAAV01@ABV01@@Z
??4CCPlace@cocos2d@@QAEAAV01@ABV01@@Z
??4CCPoint@cocos2d@@QAEAAV01@ABV01@@Z
??4CCPoint@cocos2d@@QAEAAV01@ABVCCSize@1@@Z
??4CCPointArray@cocos2d@@QAEAAV01@ABV01@@Z
??4CCPoolManager@cocos2d@@QAEAAV01@ABV01@@Z
??4CCPrettyPrinter@cocos2d@@QAEAAV01@ABV01@@Z
??4CCProfiler@cocos2d@@QAEAAV01@ABV01@@Z
??4CCProgressFromTo@cocos2d@@QAEAAV01@ABV01@@Z
??4CCProgressTimer@cocos2d@@QAEAAV01@ABV01@@Z
??4CCProgressTo@cocos2d@@QAEAAV01@ABV01@@Z
??4CCRGBAProtocol@cocos2d@@QAEAAV01@ABV01@@Z
??4CCRect@cocos2d@@QAEAAV01@ABV01@@Z
??4CCRemoveSelf@cocos2d@@QAEAAV01@ABV01@@Z
??4CCRenderTexture@cocos2d@@QAEAAV01@ABV01@@Z
??4CCRepeat@cocos2d@@QAEAAV01@ABV01@@Z
??4CCRepeatForever@cocos2d@@QAEAAV01@ABV01@@Z
??4CCReuseGrid@cocos2d@@QAEAAV01@ABV01@@Z
??4CCReverseTime@cocos2d@@QAEAAV01@ABV01@@Z
??4CCRipple3D@cocos2d@@QAEAAV01@ABV01@@Z
??4CCRotateBy@cocos2d@@QAEAAV01@ABV01@@Z
??4CCRotateTo@cocos2d@@QAEAAV01@ABV01@@Z
??4CCSAXDelegator@cocos2d@@QAEAAV01@ABV01@@Z
??4CCSAXParser@cocos2d@@QAEAAV01@ABV01@@Z
??4CCScaleBy@cocos2d@@QAEAAV01@ABV01@@Z
??4CCScaleTo@cocos2d@@QAEAAV01@ABV01@@Z
??4CCScene@cocos2d@@QAEAAV01@ABV01@@Z
??4CCSceneTransitionDelegate@cocos2d@@QAEAAV01@ABV01@@Z
??4CCScheduler@cocos2d@@QAEAAV01@ABV01@@Z
??4CCScriptEngineManager@cocos2d@@QAEAAV01@ABV01@@Z
??4CCScriptEngineProtocol@cocos2d@@QAEAAV01@ABV01@@Z
??4CCSequence@cocos2d@@QAEAAV01@ABV01@@Z
??4CCSet@cocos2d@@QAEAAV01@ABV01@@Z
??4CCShaderCache@cocos2d@@QAEAAV01@ABV01@@Z
??4CCShaky3D@cocos2d@@QAEAAV01@ABV01@@Z
??4CCShakyTiles3D@cocos2d@@QAEAAV01@ABV01@@Z
??4CCShatteredTiles3D@cocos2d@@QAEAAV01@ABV01@@Z
??4CCShow@cocos2d@@QAEAAV01@ABV01@@Z
??4CCShuffleTiles@cocos2d@@QAEAAV01@ABV01@@Z
??4CCSize@cocos2d@@QAEAAV01@ABV01@@Z
??4CCSize@cocos2d@@QAEAAV01@ABVCCPoint@1@@Z
??4CCSkewBy@cocos2d@@QAEAAV01@ABV01@@Z
??4CCSkewTo@cocos2d@@QAEAAV01@ABV01@@Z
??4CCSpawn@cocos2d@@QAEAAV01@ABV01@@Z
??4CCSpeed@cocos2d@@QAEAAV01@ABV01@@Z
??4CCSplitCols@cocos2d@@QAEAAV01@ABV01@@Z
??4CCSplitRows@cocos2d@@QAEAAV01@ABV01@@Z
??4CCSprite@cocos2d@@QAEAAV01@ABV01@@Z
??4CCSpriteBatchNode@cocos2d@@QAEAAV01@ABV01@@Z
??4CCSpriteExtra@cocos2d@@QAEAAV01@ABV01@@Z
??4CCSpriteFrame@cocos2d@@QAEAAV01@ABV01@@Z
??4CCSpriteFrameCache@cocos2d@@QAEAAV01@ABV01@@Z
??4CCStandardTouchDelegate@cocos2d@@QAEAAV01@ABV01@@Z
??4CCStandardTouchHandler@cocos2d@@QAEAAV01@ABV01@@Z
??4CCStopGrid@cocos2d@@QAEAAV01@ABV01@@Z
??4CCString@cocos2d@@QAEAAV01@ABV01@@Z
??4CCTMXLayer@cocos2d@@QAEAAV01@ABV01@@Z
??4CCTMXLayerInfo@cocos2d@@QAEAAV01@ABV01@@Z
??4CCTMXMapInfo@cocos2d@@QAEAAV01@ABV01@@Z
??4CCTMXObjectGroup@cocos2d@@QAEAAV01@ABV01@@Z
??4CCTMXTiledMap@cocos2d@@QAEAAV01@ABV01@@Z
??4CCTMXTilesetInfo@cocos2d@@QAEAAV01@ABV01@@Z
??4CCTargetedAction@cocos2d@@QAEAAV01@ABV01@@Z
??4CCTargetedTouchDelegate@cocos2d@@QAEAAV01@ABV01@@Z
??4CCTargetedTouchHandler@cocos2d@@QAEAAV01@ABV01@@Z
??4CCTextFieldDelegate@cocos2d@@QAEAAV01@ABV01@@Z
??4CCTextFieldTTF@cocos2d@@QAEAAV01@ABV01@@Z
??4CCTexture2D@cocos2d@@QAEAAV01@ABV01@@Z
??4CCTextureAtlas@cocos2d@@QAEAAV01@ABV01@@Z
??4CCTextureCache@cocos2d@@QAEAAV01@ABV01@@Z
??4CCTextureETC@cocos2d@@QAEAAV01@ABV01@@Z
??4CCTextureProtocol@cocos2d@@QAEAAV01@ABV01@@Z
??4CCThread@cocos2d@@QAEAAV01@ABV01@@Z
??4CCTileMapAtlas@cocos2d@@QAEAAV01@ABV01@@Z
??4CCTiledGrid3D@cocos2d@@QAEAAV01@ABV01@@Z
??4CCTiledGrid3DAction@cocos2d@@QAEAAV01@ABV01@@Z
??4CCTime@cocos2d@@QAEAAV01@ABV01@@Z
??4CCTimer@cocos2d@@QAEAAV01@ABV01@@Z
??4CCTintBy@cocos2d@@QAEAAV01@ABV01@@Z
??4CCTintTo@cocos2d@@QAEAAV01@ABV01@@Z
??4CCToggleVisibility@cocos2d@@QAEAAV01@ABV01@@Z
??4CCTouch@cocos2d@@QAEAAV01@ABV01@@Z
??4CCTouchDelegate@cocos2d@@QAEAAV01@ABV01@@Z
??4CCTouchDispatcher@cocos2d@@QAEAAV01@ABV01@@Z
??4CCTouchHandler@cocos2d@@QAEAAV01@ABV01@@Z
??4CCTransitionCrossFade@cocos2d@@QAEAAV01@ABV01@@Z
??4CCTransitionEaseScene@cocos2d@@QAEAAV01@ABV01@@Z
??4CCTransitionFade@cocos2d@@QAEAAV01@ABV01@@Z
??4CCTransitionFadeBL@cocos2d@@QAEAAV01@ABV01@@Z
??4CCTransitionFadeDown@cocos2d@@QAEAAV01@ABV01@@Z
??4CCTransitionFadeTR@cocos2d@@QAEAAV01@ABV01@@Z
??4CCTransitionFadeUp@cocos2d@@QAEAAV01@ABV01@@Z
??4CCTransitionFlipAngular@cocos2d@@QAEAAV01@ABV01@@Z
??4CCTransitionFlipX@cocos2d@@QAEAAV01@ABV01@@Z
??4CCTransitionFlipY@cocos2d@@QAEAAV01@ABV01@@Z
??4CCTransitionJumpZoom@cocos2d@@QAEAAV01@ABV01@@Z
??4CCTransitionMoveInB@cocos2d@@QAEAAV01@ABV01@@Z
??4CCTransitionMoveInL@cocos2d@@QAEAAV01@ABV01@@Z
??4CCTransitionMoveInR@cocos2d@@QAEAAV01@ABV01@@Z
??4CCTransitionMoveInT@cocos2d@@QAEAAV01@ABV01@@Z
??4CCTransitionPageTurn@cocos2d@@QAEAAV01@ABV01@@Z
??4CCTransitionProgress@cocos2d@@QAEAAV01@ABV01@@Z
??4CCTransitionProgressHorizontal@cocos2d@@QAEAAV01@ABV01@@Z
??4CCTransitionProgressInOut@cocos2d@@QAEAAV01@ABV01@@Z
??4CCTransitionProgressOutIn@cocos2d@@QAEAAV01@ABV01@@Z
??4CCTransitionProgressRadialCCW@cocos2d@@QAEAAV01@ABV01@@Z
??4CCTransitionProgressRadialCW@cocos2d@@QAEAAV01@ABV01@@Z
??4CCTransitionProgressVertical@cocos2d@@QAEAAV01@ABV01@@Z
??4CCTransitionRotoZoom@cocos2d@@QAEAAV01@ABV01@@Z
??4CCTransitionScene@cocos2d@@QAEAAV01@ABV01@@Z
??4CCTransitionSceneOriented@cocos2d@@QAEAAV01@ABV01@@Z
??4CCTransitionShrinkGrow@cocos2d@@QAEAAV01@ABV01@@Z
??4CCTransitionSlideInB@cocos2d@@QAEAAV01@ABV01@@Z
??4CCTransitionSlideInL@cocos2d@@QAEAAV01@ABV01@@Z
??4CCTransitionSlideInR@cocos2d@@QAEAAV01@ABV01@@Z
??4CCTransitionSlideInT@cocos2d@@QAEAAV01@ABV01@@Z
??4CCTransitionSplitCols@cocos2d@@QAEAAV01@ABV01@@Z
??4CCTransitionSplitRows@cocos2d@@QAEAAV01@ABV01@@Z
??4CCTransitionTurnOffTiles@cocos2d@@QAEAAV01@ABV01@@Z
??4CCTransitionZoomFlipAngular@cocos2d@@QAEAAV01@ABV01@@Z
??4CCTransitionZoomFlipX@cocos2d@@QAEAAV01@ABV01@@Z
??4CCTransitionZoomFlipY@cocos2d@@QAEAAV01@ABV01@@Z
??4CCTurnOffTiles@cocos2d@@QAEAAV01@ABV01@@Z
??4CCTwirl@cocos2d@@QAEAAV01@ABV01@@Z
??4CCUserDefault@cocos2d@@QAEAAV01@ABV01@@Z
??4CCWaves3D@cocos2d@@QAEAAV01@ABV01@@Z
??4CCWaves@cocos2d@@QAEAAV01@ABV01@@Z
??4CCWavesTiles3D@cocos2d@@QAEAAV01@ABV01@@Z
??4CCZone@cocos2d@@QAEAAV01@ABV01@@Z
??4EGLTouchDelegate@cocos2d@@QAEAAV01@ABV01@@Z
??4FormatError@fmt@@QAEAAV01@ABV01@@Z
??4FormatInt@fmt@@QAEAAV01@ABV01@@Z
??4MemPool@tinyxml2@@QAEAAV01@ABV01@@Z
??4ObjectDecoder@@QAEAAV0@ABV0@@Z
??4RuntimeError@internal@fmt@@QAEAAV012@ABV012@@Z
??4StrPair@tinyxml2@@QAEAAV01@ABV01@@Z
??4SystemError@fmt@@QAEAAV01@ABV01@@Z
??4WindowsError@fmt@@QAEAAV01@ABV01@@Z
??4XMLConstHandle@tinyxml2@@QAEAAV01@ABV01@@Z
??4XMLHandle@tinyxml2@@QAEAAV01@ABV01@@Z
??4XMLPrinter@tinyxml2@@QAEAAV01@ABV01@@Z
??4XMLUtil@tinyxml2@@QAEAAV01@ABV01@@Z
??4XMLVisitor@tinyxml2@@QAEAAV01@ABV01@@Z
??4ZipUtils@cocos2d@@QAEAAV01@ABV01@@Z
??4cc_timeval@cocos2d@@QAEAAU01@ABU01@@Z
??6?$BasicWriter@D@fmt@@QAEAAV01@H@Z
??6?$BasicWriter@D@fmt@@QAEAAV01@N@Z
??6?$BasicWriter@D@fmt@@QAEAAV01@V?$BasicStringRef@D@1@@Z
??A?$DynArray@PAUBlock@?$MemPoolT@$0CE@@tinyxml2@@$09@tinyxml2@@QAEAAPAUBlock@?$MemPoolT@$0CE@@1@H@Z
??A?$DynArray@PAUBlock@?$MemPoolT@$0CM@@tinyxml2@@$09@tinyxml2@@QAEAAPAUBlock@?$MemPoolT@$0CM@@1@H@Z
??A?$DynArray@PAUBlock@?$MemPoolT@$0DA@@tinyxml2@@$09@tinyxml2@@QAEAAPAUBlock@?$MemPoolT@$0DA@@1@H@Z
??A?$DynArray@PAUBlock@?$MemPoolT@$0DE@@tinyxml2@@$09@tinyxml2@@QAEAAPAUBlock@?$MemPoolT@$0DE@@1@H@Z
??AArgList@fmt@@QBEABUArg@internal@1@I@Z
??BUTF16ToUTF8@internal@fmt@@QBE?AV?$BasicStringRef@D@2@XZ
??BUTF8ToUTF16@internal@fmt@@QBE?AV?$BasicStringRef@_W@2@XZ
??DCCPoint@cocos2d@@QBE?AV01@M@Z
??DCCSize@cocos2d@@QBE?AV01@M@Z
??GCCPoint@cocos2d@@QBE?AV01@ABV01@@Z
??GCCPoint@cocos2d@@QBE?AV01@XZ
??GCCSize@cocos2d@@QBE?AV01@ABV01@@Z
??HCCPoint@cocos2d@@QBE?AV01@ABV01@@Z
??HCCSize@cocos2d@@QBE?AV01@ABV01@@Z
??KCCPoint@cocos2d@@QBE?AV01@M@Z
??KCCSize@cocos2d@@QBE?AV01@M@Z
??_7?$MemPoolT@$0CE@@tinyxml2@@6B@
??_7?$MemPoolT@$0CM@@tinyxml2@@6B@
??_7?$MemPoolT@$0DA@@tinyxml2@@6B@
??_7?$MemPoolT@$0DE@@tinyxml2@@6B@
??_7CCAccelAmplitude@cocos2d@@6B@
??_7CCAccelDeccelAmplitude@cocos2d@@6B@
??_7CCAccelerometerDelegate@cocos2d@@6B@
??_7CCAction@cocos2d@@6B@
??_7CCActionCamera@cocos2d@@6B@
??_7CCActionEase@cocos2d@@6B@
??_7CCActionInstant@cocos2d@@6B@
??_7CCActionInterval@cocos2d@@6B@
??_7CCActionManager@cocos2d@@6B@
??_7CCActionTween@cocos2d@@6B@
??_7CCActionTweenDelegate@cocos2d@@6B@
??_7CCAnimate@cocos2d@@6B@
??_7CCAnimation@cocos2d@@6B@
??_7CCAnimationCache@cocos2d@@6B@
??_7CCAnimationFrame@cocos2d@@6B@
??_7CCApplication@cocos2d@@6B@
??_7CCApplicationProtocol@cocos2d@@6B@
??_7CCArray@cocos2d@@6B@
??_7CCAtlasNode@cocos2d@@6B@
??_7CCAtlasNode@cocos2d@@6BCCNode@1@@
??_7CCAtlasNode@cocos2d@@6BCCRGBAProtocol@1@@
??_7CCAutoreleasePool@cocos2d@@6B@
??_7CCBMFontConfiguration@cocos2d@@6B@
??_7CCBezierBy@cocos2d@@6B@
??_7CCBezierTo@cocos2d@@6B@
??_7CCBlendProtocol@cocos2d@@6B@
??_7CCBlink@cocos2d@@6B@
??_7CCBool@cocos2d@@6B@
??_7CCCallFunc@cocos2d@@6B@
??_7CCCallFuncN@cocos2d@@6BCCCallFunc@1@@
??_7CCCallFuncN@cocos2d@@6BTypeInfo@1@@
??_7CCCallFuncND@cocos2d@@6BCCCallFunc@1@@
??_7CCCallFuncND@cocos2d@@6BTypeInfo@1@@
??_7CCCallFuncO@cocos2d@@6BCCCallFunc@1@@
??_7CCCallFuncO@cocos2d@@6BTypeInfo@1@@
??_7CCCamera@cocos2d@@6B@
??_7CCCardinalSplineBy@cocos2d@@6B@
??_7CCCardinalSplineTo@cocos2d@@6B@
??_7CCCatmullRomBy@cocos2d@@6B@
??_7CCCatmullRomTo@cocos2d@@6B@
??_7CCClippingNode@cocos2d@@6B@
??_7CCComponent@cocos2d@@6B@
??_7CCComponentContainer@cocos2d@@6B@
??_7CCConfiguration@cocos2d@@6B@
??_7CCContentManager@@6B@
??_7CCCopying@cocos2d@@6B@
??_7CCDataVisitor@cocos2d@@6B@
??_7CCDeccelAmplitude@cocos2d@@6B@
??_7CCDelayTime@cocos2d@@6B@
??_7CCDictionary@cocos2d@@6B@
??_7CCDirector@cocos2d@@6BCCObject@1@@
??_7CCDirector@cocos2d@@6BTypeInfo@1@@
??_7CCDirectorDelegate@cocos2d@@6B@
??_7CCDouble@cocos2d@@6B@
??_7CCDrawNode@cocos2d@@6BCCNode@1@@
??_7CCDrawNode@cocos2d@@6BCCRGBAProtocol@1@@
??_7CCEGLView@cocos2d@@6BCCEGLViewProtocol@1@@
??_7CCEGLView@cocos2d@@6BCCObject@1@@
??_7CCEGLViewProtocol@cocos2d@@6B@
??_7CCEaseBackIn@cocos2d@@6B@
??_7CCEaseBackInOut@cocos2d@@6B@
??_7CCEaseBackOut@cocos2d@@6B@
??_7CCEaseBounce@cocos2d@@6B@
??_7CCEaseBounceIn@cocos2d@@6B@
??_7CCEaseBounceInOut@cocos2d@@6B@
??_7CCEaseBounceOut@cocos2d@@6B@
??_7CCEaseElastic@cocos2d@@6B@
??_7CCEaseElasticIn@cocos2d@@6B@
??_7CCEaseElasticInOut@cocos2d@@6B@
??_7CCEaseElasticOut@cocos2d@@6B@
??_7CCEaseExponentialIn@cocos2d@@6B@
??_7CCEaseExponentialInOut@cocos2d@@6B@
??_7CCEaseExponentialOut@cocos2d@@6B@
??_7CCEaseIn@cocos2d@@6B@
??_7CCEaseInOut@cocos2d@@6B@
??_7CCEaseOut@cocos2d@@6B@
??_7CCEaseRateAction@cocos2d@@6B@
??_7CCEaseSineIn@cocos2d@@6B@
??_7CCEaseSineInOut@cocos2d@@6B@
??_7CCEaseSineOut@cocos2d@@6B@
??_7CCEvent@cocos2d@@6B@
??_7CCFadeIn@cocos2d@@6B@
??_7CCFadeOut@cocos2d@@6B@
??_7CCFadeOutBLTiles@cocos2d@@6B@
??_7CCFadeOutDownTiles@cocos2d@@6B@
??_7CCFadeOutTRTiles@cocos2d@@6B@
??_7CCFadeOutUpTiles@cocos2d@@6B@
??_7CCFadeTo@cocos2d@@6B@
??_7CCFileUtils@cocos2d@@6B@
??_7CCFileUtilsWin32@cocos2d@@6B@
??_7CCFiniteTimeAction@cocos2d@@6B@
??_7CCFlipX3D@cocos2d@@6B@
??_7CCFlipX@cocos2d@@6B@
??_7CCFlipY3D@cocos2d@@6B@
??_7CCFlipY@cocos2d@@6B@
??_7CCFloat@cocos2d@@6B@
??_7CCFollow@cocos2d@@6B@
??_7CCGLProgram@cocos2d@@6B@
??_7CCGrid3D@cocos2d@@6B@
??_7CCGrid3DAction@cocos2d@@6B@
??_7CCGridAction@cocos2d@@6B@
??_7CCGridBase@cocos2d@@6B@
??_7CCHide@cocos2d@@6B@
??_7CCIMEDelegate@cocos2d@@6B@
??_7CCImage@cocos2d@@6B@
??_7CCInteger@cocos2d@@6B@
??_7CCJumpBy@cocos2d@@6B@
??_7CCJumpTiles3D@cocos2d@@6B@
??_7CCJumpTo@cocos2d@@6B@
??_7CCKeyboardDelegate@cocos2d@@6B@
??_7CCKeyboardDispatcher@cocos2d@@6B@
??_7CCKeyboardHandler@cocos2d@@6B@
??_7CCKeypadDelegate@cocos2d@@6B@
??_7CCKeypadDispatcher@cocos2d@@6B@
??_7CCKeypadHandler@cocos2d@@6B@
??_7CCLabelAtlas@cocos2d@@6BCCAtlasNode@1@@
??_7CCLabelAtlas@cocos2d@@6BCCLabelProtocol@1@@
??_7CCLabelAtlas@cocos2d@@6BCCNode@1@@
??_7CCLabelAtlas@cocos2d@@6BCCRGBAProtocol@1@@
??_7CCLabelBMFont@cocos2d@@6BCCLabelProtocol@1@@
??_7CCLabelBMFont@cocos2d@@6BCCNode@1@@
??_7CCLabelBMFont@cocos2d@@6BCCRGBAProtocol@1@@
??_7CCLabelBMFont@cocos2d@@6BCCTextureProtocol@1@@
??_7CCLabelProtocol@cocos2d@@6B@
??_7CCLabelTTF@cocos2d@@6BCCLabelProtocol@1@@
??_7CCLabelTTF@cocos2d@@6BCCNode@1@@
??_7CCLabelTTF@cocos2d@@6BCCRGBAProtocol@1@@
??_7CCLabelTTF@cocos2d@@6BCCSprite@1@@
??_7CCLayer@cocos2d@@6BCCAccelerometerDelegate@1@@
??_7CCLayer@cocos2d@@6BCCKeyboardDelegate@1@@
??_7CCLayer@cocos2d@@6BCCKeypadDelegate@1@@
??_7CCLayer@cocos2d@@6BCCMouseDelegate@1@@
??_7CCLayer@cocos2d@@6BCCNode@1@@
??_7CCLayer@cocos2d@@6BCCTouchDelegate@1@@
??_7CCLayerColor@cocos2d@@6BCCAccelerometerDelegate@1@@
??_7CCLayerColor@cocos2d@@6BCCBlendProtocol@1@@
??_7CCLayerColor@cocos2d@@6BCCKeyboardDelegate@1@@
??_7CCLayerColor@cocos2d@@6BCCKeypadDelegate@1@@
??_7CCLayerColor@cocos2d@@6BCCLayerRGBA@1@@
??_7CCLayerColor@cocos2d@@6BCCMouseDelegate@1@@
??_7CCLayerColor@cocos2d@@6BCCNode@1@@
??_7CCLayerColor@cocos2d@@6BCCTouchDelegate@1@@
??_7CCLayerGradient@cocos2d@@6BCCAccelerometerDelegate@1@@
??_7CCLayerGradient@cocos2d@@6BCCBlendProtocol@1@@
??_7CCLayerGradient@cocos2d@@6BCCKeyboardDelegate@1@@
??_7CCLayerGradient@cocos2d@@6BCCKeypadDelegate@1@@
??_7CCLayerGradient@cocos2d@@6BCCLayerRGBA@1@@
??_7CCLayerGradient@cocos2d@@6BCCMouseDelegate@1@@
??_7CCLayerGradient@cocos2d@@6BCCNode@1@@
??_7CCLayerGradient@cocos2d@@6BCCTouchDelegate@1@@
??_7CCLayerMultiplex@cocos2d@@6BCCAccelerometerDelegate@1@@
??_7CCLayerMultiplex@cocos2d@@6BCCKeyboardDelegate@1@@
??_7CCLayerMultiplex@cocos2d@@6BCCKeypadDelegate@1@@
??_7CCLayerMultiplex@cocos2d@@6BCCMouseDelegate@1@@
??_7CCLayerMultiplex@cocos2d@@6BCCNode@1@@
??_7CCLayerMultiplex@cocos2d@@6BCCTouchDelegate@1@@
??_7CCLayerRGBA@cocos2d@@6B@
??_7CCLayerRGBA@cocos2d@@6BCCAccelerometerDelegate@1@@
??_7CCLayerRGBA@cocos2d@@6BCCKeyboardDelegate@1@@
??_7CCLayerRGBA@cocos2d@@6BCCKeypadDelegate@1@@
??_7CCLayerRGBA@cocos2d@@6BCCMouseDelegate@1@@
??_7CCLayerRGBA@cocos2d@@6BCCNode@1@@
??_7CCLayerRGBA@cocos2d@@6BCCTouchDelegate@1@@
??_7CCLens3D@cocos2d@@6B@
??_7CCLiquid@cocos2d@@6B@
??_7CCMenu@cocos2d@@6B@
??_7CCMenu@cocos2d@@6BCCAccelerometerDelegate@1@@
??_7CCMenu@cocos2d@@6BCCKeyboardDelegate@1@@
??_7CCMenu@cocos2d@@6BCCKeypadDelegate@1@@
??_7CCMenu@cocos2d@@6BCCMouseDelegate@1@@
??_7CCMenu@cocos2d@@6BCCNode@1@@
??_7CCMenu@cocos2d@@6BCCTouchDelegate@1@@
??_7CCMenuItem@cocos2d@@6BCCNode@1@@
??_7CCMenuItem@cocos2d@@6BCCRGBAProtocol@1@@
??_7CCMenuItemAtlasFont@cocos2d@@6BCCNode@1@@
??_7CCMenuItemAtlasFont@cocos2d@@6BCCRGBAProtocol@1@@
??_7CCMenuItemFont@cocos2d@@6BCCNode@1@@
??_7CCMenuItemFont@cocos2d@@6BCCRGBAProtocol@1@@
??_7CCMenuItemImage@cocos2d@@6BCCNode@1@@
??_7CCMenuItemImage@cocos2d@@6BCCRGBAProtocol@1@@
??_7CCMenuItemLabel@cocos2d@@6BCCNode@1@@
??_7CCMenuItemLabel@cocos2d@@6BCCRGBAProtocol@1@@
??_7CCMenuItemSprite@cocos2d@@6BCCNode@1@@
??_7CCMenuItemSprite@cocos2d@@6BCCRGBAProtocol@1@@
??_7CCMenuItemToggle@cocos2d@@6BCCNode@1@@
??_7CCMenuItemToggle@cocos2d@@6BCCRGBAProtocol@1@@
??_7CCMotionStreak@cocos2d@@6B@
??_7CCMotionStreak@cocos2d@@6BCCNode@1@@
??_7CCMotionStreak@cocos2d@@6BCCRGBAProtocol@1@@
??_7CCMouseDelegate@cocos2d@@6B@
??_7CCMouseDispatcher@cocos2d@@6B@
??_7CCMouseHandler@cocos2d@@6B@
??_7CCMoveBy@cocos2d@@6B@
??_7CCMoveTo@cocos2d@@6B@
??_7CCNode@cocos2d@@6B@
??_7CCNodeRGBA@cocos2d@@6BCCNode@1@@
??_7CCNodeRGBA@cocos2d@@6BCCRGBAProtocol@1@@
??_7CCNotificationCenter@cocos2d@@6B@
??_7CCNotificationObserver@cocos2d@@6B@
??_7CCObject@cocos2d@@6B@
??_7CCOrbitCamera@cocos2d@@6B@
??_7CCPageTurn3D@cocos2d@@6B@
??_7CCParallaxNode@cocos2d@@6B@
??_7CCParticleBatchNode@cocos2d@@6BCCNode@1@@
??_7CCParticleBatchNode@cocos2d@@6BCCTextureProtocol@1@@
??_7CCParticleExplosion@cocos2d@@6BCCNode@1@@
??_7CCParticleExplosion@cocos2d@@6BCCTextureProtocol@1@@
??_7CCParticleFire@cocos2d@@6BCCNode@1@@
??_7CCParticleFire@cocos2d@@6BCCTextureProtocol@1@@
??_7CCParticleFireworks@cocos2d@@6BCCNode@1@@
??_7CCParticleFireworks@cocos2d@@6BCCTextureProtocol@1@@
??_7CCParticleFlower@cocos2d@@6BCCNode@1@@
??_7CCParticleFlower@cocos2d@@6BCCTextureProtocol@1@@
??_7CCParticleGalaxy@cocos2d@@6BCCNode@1@@
??_7CCParticleGalaxy@cocos2d@@6BCCTextureProtocol@1@@
??_7CCParticleMeteor@cocos2d@@6BCCNode@1@@
??_7CCParticleMeteor@cocos2d@@6BCCTextureProtocol@1@@
??_7CCParticleRain@cocos2d@@6BCCNode@1@@
??_7CCParticleRain@cocos2d@@6BCCTextureProtocol@1@@
??_7CCParticleSmoke@cocos2d@@6BCCNode@1@@
??_7CCParticleSmoke@cocos2d@@6BCCTextureProtocol@1@@
??_7CCParticleSnow@cocos2d@@6BCCNode@1@@
??_7CCParticleSnow@cocos2d@@6BCCTextureProtocol@1@@
??_7CCParticleSpiral@cocos2d@@6BCCNode@1@@
??_7CCParticleSpiral@cocos2d@@6BCCTextureProtocol@1@@
??_7CCParticleSun@cocos2d@@6BCCNode@1@@
??_7CCParticleSun@cocos2d@@6BCCTextureProtocol@1@@
??_7CCParticleSystem@cocos2d@@6BCCNode@1@@
??_7CCParticleSystem@cocos2d@@6BCCTextureProtocol@1@@
??_7CCParticleSystemQuad@cocos2d@@6BCCNode@1@@
??_7CCParticleSystemQuad@cocos2d@@6BCCTextureProtocol@1@@
??_7CCPlace@cocos2d@@6B@
??_7CCPointArray@cocos2d@@6B@
??_7CCPrettyPrinter@cocos2d@@6B@
??_7CCProfiler@cocos2d@@6B@
??_7CCProgressFromTo@cocos2d@@6B@
??_7CCProgressTimer@cocos2d@@6BCCNode@1@@
??_7CCProgressTimer@cocos2d@@6BCCRGBAProtocol@1@@
??_7CCProgressTo@cocos2d@@6B@
??_7CCRGBAProtocol@cocos2d@@6B@
??_7CCRemoveSelf@cocos2d@@6B@
??_7CCRenderTexture@cocos2d@@6B@
??_7CCRepeat@cocos2d@@6B@
??_7CCRepeatForever@cocos2d@@6B@
??_7CCReuseGrid@cocos2d@@6B@
??_7CCReverseTime@cocos2d@@6B@
??_7CCRipple3D@cocos2d@@6B@
??_7CCRotateBy@cocos2d@@6B@
??_7CCRotateTo@cocos2d@@6B@
??_7CCSAXDelegator@cocos2d@@6B@
??_7CCScaleBy@cocos2d@@6B@
??_7CCScaleTo@cocos2d@@6B@
??_7CCScene@cocos2d@@6B@
??_7CCSceneTransitionDelegate@cocos2d@@6B@
??_7CCScheduler@cocos2d@@6B@
??_7CCScriptEngineProtocol@cocos2d@@6B@
??_7CCSequence@cocos2d@@6B@
??_7CCSet@cocos2d@@6B@
??_7CCShaderCache@cocos2d@@6B@
??_7CCShaky3D@cocos2d@@6B@
??_7CCShakyTiles3D@cocos2d@@6B@
??_7CCShatteredTiles3D@cocos2d@@6B@
??_7CCShow@cocos2d@@6B@
??_7CCShuffleTiles@cocos2d@@6B@
??_7CCSkewBy@cocos2d@@6B@
??_7CCSkewTo@cocos2d@@6B@
??_7CCSpawn@cocos2d@@6B@
??_7CCSpeed@cocos2d@@6B@
??_7CCSplitCols@cocos2d@@6B@
??_7CCSplitRows@cocos2d@@6B@
??_7CCSprite@cocos2d@@6B@
??_7CCSprite@cocos2d@@6BCCNode@1@@
??_7CCSprite@cocos2d@@6BCCRGBAProtocol@1@@
??_7CCSpriteBatchNode@cocos2d@@6BCCNode@1@@
??_7CCSpriteBatchNode@cocos2d@@6BCCTextureProtocol@1@@
??_7CCSpriteExtra@cocos2d@@6B@
??_7CCSpriteExtra@cocos2d@@6BCCNode@1@@
??_7CCSpriteExtra@cocos2d@@6BCCRGBAProtocol@1@@
??_7CCSpriteFrame@cocos2d@@6B@
??_7CCSpriteFrameCache@cocos2d@@6B@
??_7CCStandardTouchDelegate@cocos2d@@6B@
??_7CCStandardTouchHandler@cocos2d@@6B@
??_7CCStopGrid@cocos2d@@6B@
??_7CCString@cocos2d@@6B@
??_7CCTMXLayer@cocos2d@@6BCCNode@1@@
??_7CCTMXLayer@cocos2d@@6BCCTextureProtocol@1@@
??_7CCTMXLayerInfo@cocos2d@@6B@
??_7CCTMXMapInfo@cocos2d@@6BCCObject@1@@
??_7CCTMXMapInfo@cocos2d@@6BCCSAXDelegator@1@@
??_7CCTMXObjectGroup@cocos2d@@6B@
??_7CCTMXTiledMap@cocos2d@@6B@
??_7CCTMXTilesetInfo@cocos2d@@6B@
??_7CCTargetedAction@cocos2d@@6B@
??_7CCTargetedTouchDelegate@cocos2d@@6B@
??_7CCTargetedTouchHandler@cocos2d@@6B@
??_7CCTextFieldDelegate@cocos2d@@6B@
??_7CCTextFieldTTF@cocos2d@@6B@
??_7CCTextFieldTTF@cocos2d@@6BCCLabelProtocol@1@@
??_7CCTextFieldTTF@cocos2d@@6BCCNode@1@@
??_7CCTextFieldTTF@cocos2d@@6BCCRGBAProtocol@1@@
??_7CCTextFieldTTF@cocos2d@@6BCCSprite@1@@
??_7CCTexture2D@cocos2d@@6B@
??_7CCTextureAtlas@cocos2d@@6B@
??_7CCTextureCache@cocos2d@@6B@
??_7CCTextureETC@cocos2d@@6B@
??_7CCTextureProtocol@cocos2d@@6B@
??_7CCTileMapAtlas@cocos2d@@6B@
??_7CCTileMapAtlas@cocos2d@@6BCCNode@1@@
??_7CCTileMapAtlas@cocos2d@@6BCCRGBAProtocol@1@@
??_7CCTiledGrid3D@cocos2d@@6B@
??_7CCTiledGrid3DAction@cocos2d@@6B@
??_7CCTimer@cocos2d@@6B@
??_7CCTintBy@cocos2d@@6B@
??_7CCTintTo@cocos2d@@6B@
??_7CCToggleVisibility@cocos2d@@6B@
??_7CCTouch@cocos2d@@6B@
??_7CCTouchDelegate@cocos2d@@6B@
??_7CCTouchDispatcher@cocos2d@@6BCCObject@1@@
??_7CCTouchDispatcher@cocos2d@@6BEGLTouchDelegate@1@@
??_7CCTouchHandler@cocos2d@@6B@
??_7CCTransitionCrossFade@cocos2d@@6B@
??_7CCTransitionEaseScene@cocos2d@@6B@
??_7CCTransitionFade@cocos2d@@6B@
??_7CCTransitionFadeBL@cocos2d@@6BCCTransitionEaseScene@1@@
??_7CCTransitionFadeBL@cocos2d@@6BCCTransitionScene@1@@
??_7CCTransitionFadeDown@cocos2d@@6BCCTransitionEaseScene@1@@
??_7CCTransitionFadeDown@cocos2d@@6BCCTransitionScene@1@@
??_7CCTransitionFadeTR@cocos2d@@6BCCTransitionEaseScene@1@@
??_7CCTransitionFadeTR@cocos2d@@6BCCTransitionScene@1@@
??_7CCTransitionFadeUp@cocos2d@@6BCCTransitionEaseScene@1@@
??_7CCTransitionFadeUp@cocos2d@@6BCCTransitionScene@1@@
??_7CCTransitionFlipAngular@cocos2d@@6B@
??_7CCTransitionFlipX@cocos2d@@6B@
??_7CCTransitionFlipY@cocos2d@@6B@
??_7CCTransitionJumpZoom@cocos2d@@6B@
??_7CCTransitionMoveInB@cocos2d@@6BCCTransitionEaseScene@1@@
??_7CCTransitionMoveInB@cocos2d@@6BCCTransitionScene@1@@
??_7CCTransitionMoveInL@cocos2d@@6BCCTransitionEaseScene@1@@
??_7CCTransitionMoveInL@cocos2d@@6BCCTransitionScene@1@@
??_7CCTransitionMoveInR@cocos2d@@6BCCTransitionEaseScene@1@@
??_7CCTransitionMoveInR@cocos2d@@6BCCTransitionScene@1@@
??_7CCTransitionMoveInT@cocos2d@@6BCCTransitionEaseScene@1@@
??_7CCTransitionMoveInT@cocos2d@@6BCCTransitionScene@1@@
??_7CCTransitionPageTurn@cocos2d@@6B@
??_7CCTransitionProgress@cocos2d@@6B@
??_7CCTransitionProgressHorizontal@cocos2d@@6B@
??_7CCTransitionProgressInOut@cocos2d@@6B@
??_7CCTransitionProgressOutIn@cocos2d@@6B@
??_7CCTransitionProgressRadialCCW@cocos2d@@6B@
??_7CCTransitionProgressRadialCW@cocos2d@@6B@
??_7CCTransitionProgressVertical@cocos2d@@6B@
??_7CCTransitionRotoZoom@cocos2d@@6B@
??_7CCTransitionScene@cocos2d@@6B@
??_7CCTransitionSceneOriented@cocos2d@@6B@
??_7CCTransitionShrinkGrow@cocos2d@@6BCCTransitionEaseScene@1@@
??_7CCTransitionShrinkGrow@cocos2d@@6BCCTransitionScene@1@@
??_7CCTransitionSlideInB@cocos2d@@6BCCTransitionEaseScene@1@@
??_7CCTransitionSlideInB@cocos2d@@6BCCTransitionScene@1@@
??_7CCTransitionSlideInL@cocos2d@@6BCCTransitionEaseScene@1@@
??_7CCTransitionSlideInL@cocos2d@@6BCCTransitionScene@1@@
??_7CCTransitionSlideInR@cocos2d@@6BCCTransitionEaseScene@1@@
??_7CCTransitionSlideInR@cocos2d@@6BCCTransitionScene@1@@
??_7CCTransitionSlideInT@cocos2d@@6BCCTransitionEaseScene@1@@
??_7CCTransitionSlideInT@cocos2d@@6BCCTransitionScene@1@@
??_7CCTransitionSplitCols@cocos2d@@6BCCTransitionEaseScene@1@@
??_7CCTransitionSplitCols@cocos2d@@6BCCTransitionScene@1@@
??_7CCTransitionSplitRows@cocos2d@@6BCCTransitionEaseScene@1@@
??_7CCTransitionSplitRows@cocos2d@@6BCCTransitionScene@1@@
??_7CCTransitionTurnOffTiles@cocos2d@@6BCCTransitionEaseScene@1@@
??_7CCTransitionTurnOffTiles@cocos2d@@6BCCTransitionScene@1@@
??_7CCTransitionZoomFlipAngular@cocos2d@@6B@
??_7CCTransitionZoomFlipX@cocos2d@@6B@
??_7CCTransitionZoomFlipY@cocos2d@@6B@
??_7CCTurnOffTiles@cocos2d@@6B@
??_7CCTwirl@cocos2d@@6B@
??_7CCWaves3D@cocos2d@@6B@
??_7CCWaves@cocos2d@@6B@
??_7CCWavesTiles3D@cocos2d@@6B@
??_7EGLTouchDelegate@cocos2d@@6B@
??_7FormatError@fmt@@6B@
??_7MemPool@tinyxml2@@6B@
??_7ObjectDecoder@@6B@
??_7RuntimeError@internal@fmt@@6B@
??_7SystemError@fmt@@6B@
??_7WindowsError@fmt@@6B@
??_7XMLAttribute@tinyxml2@@6B@
??_7XMLComment@tinyxml2@@6B@
??_7XMLDeclaration@tinyxml2@@6B@
??_7XMLDocument@tinyxml2@@6B@
??_7XMLElement@tinyxml2@@6B@
??_7XMLNode@tinyxml2@@6B@
??_7XMLPrinter@tinyxml2@@6B@
??_7XMLText@tinyxml2@@6B@
??_7XMLUnknown@tinyxml2@@6B@
??_7XMLVisitor@tinyxml2@@6B@
??_B?1??getClassTypeInfo@CCCallFuncN@cocos2d@@UAEJXZ@51
??_B?1??getClassTypeInfo@CCCallFuncND@cocos2d@@UAEJXZ@51
??_B?1??getClassTypeInfo@CCCallFuncO@cocos2d@@UAEJXZ@51
??_B?1??getClassTypeInfo@CCDirector@cocos2d@@UAEJXZ@51
??_B?1??getClassTypeInfo@CCFileUtils@cocos2d@@UAEJXZ@51
??_FCCPrettyPrinter@cocos2d@@QAEXXZ
??_FCCZone@cocos2d@@QAEXXZ
??_FXMLDocument@tinyxml2@@QAEXXZ
??_FXMLPrinter@tinyxml2@@QAEXXZ
?Accept@XMLComment@tinyxml2@@UBE_NPAVXMLVisitor@2@@Z
?Accept@XMLDeclaration@tinyxml2@@UBE_NPAVXMLVisitor@2@@Z
?Accept@XMLDocument@tinyxml2@@UBE_NPAVXMLVisitor@2@@Z
?Accept@XMLElement@tinyxml2@@UBE_NPAVXMLVisitor@2@@Z
?Accept@XMLText@tinyxml2@@UBE_NPAVXMLVisitor@2@@Z
?Accept@XMLUnknown@tinyxml2@@UBE_NPAVXMLVisitor@2@@Z
?Alloc@?$MemPoolT@$0CE@@tinyxml2@@UAEPAXXZ
?Alloc@?$MemPoolT@$0CM@@tinyxml2@@UAEPAXXZ
?Alloc@?$MemPoolT@$0DA@@tinyxml2@@UAEPAXXZ
?Alloc@?$MemPoolT@$0DE@@tinyxml2@@UAEPAXXZ
?Attribute@XMLElement@tinyxml2@@QBEPBDPBD0@Z
?BoolAttribute@XMLElement@tinyxml2@@QBE_NPBD@Z
?BoolValue@XMLAttribute@tinyxml2@@QBE_NXZ
?CCAffineTransformConcat@cocos2d@@YA?AUCCAffineTransform@1@ABU21@0@Z
?CCAffineTransformEqualToTransform@cocos2d@@YA_NABUCCAffineTransform@1@0@Z
?CCAffineTransformIdentity@cocos2d@@3UCCAffineTransform@1@B
?CCAffineTransformInvert@cocos2d@@YA?AUCCAffineTransform@1@ABU21@@Z
?CCAffineTransformMakeIdentity@cocos2d@@YA?AUCCAffineTransform@1@XZ
?CCAffineTransformRotate@cocos2d@@YA?AUCCAffineTransform@1@ABU21@M@Z
?CCAffineTransformScale@cocos2d@@YA?AUCCAffineTransform@1@ABU21@MM@Z
?CCAffineTransformTranslate@cocos2d@@YA?AUCCAffineTransform@1@ABU21@MM@Z
?CCLog@cocos2d@@YAXPBDZZ
?CCLuaLog@cocos2d@@YAXPBD@Z
?CCMessageBox@cocos2d@@YAXPBD0@Z
?CCPointFromString@cocos2d@@YA?AVCCPoint@1@PBD@Z
?CCProfilingBeginTimingBlock@cocos2d@@YAXPBD@Z
?CCProfilingEndTimingBlock@cocos2d@@YAXPBD@Z
?CCProfilingResetTimingBlock@cocos2d@@YAXPBD@Z
?CCRectApplyAffineTransform@cocos2d@@YA?AVCCRect@1@ABV21@ABUCCAffineTransform@1@@Z
?CCRectFromString@cocos2d@@YA?AVCCRect@1@PBD@Z
?CCSizeFromString@cocos2d@@YA?AVCCSize@1@PBD@Z
?CData@XMLText@tinyxml2@@QBE_NXZ
?CStr@XMLPrinter@tinyxml2@@QBEPBDXZ
?CStrSize@XMLPrinter@tinyxml2@@QBEHXZ
?Capacity@?$DynArray@D$0BE@@tinyxml2@@QBEHXZ
?CheckSign@?$BasicFormatter@D@fmt@@AAEXAAPBDABUArg@internal@2@@Z
?CheckSign@?$BasicFormatter@_W@fmt@@AAEXAAPB_WABUArg@internal@2@@Z
?CloseElement@XMLPrinter@tinyxml2@@QAEXXZ
?ClosingType@XMLElement@tinyxml2@@QBEHXZ
?CollapseWhitespace@StrPair@tinyxml2@@AAEXXZ
?Convert@UTF16ToUTF8@internal@fmt@@QAEHV?$BasicStringRef@_W@3@@Z
?ConvertUTF32ToUTF8@XMLUtil@tinyxml2@@SAXKPADPAH@Z
?DeleteAttribute@XMLElement@tinyxml2@@QAEXPBD@Z
?DeleteChild@XMLNode@tinyxml2@@QAEXPAV12@@Z
?DeleteChildren@XMLNode@tinyxml2@@QAEXXZ
?DeleteNode@XMLDocument@tinyxml2@@QAEXPAVXMLNode@2@@Z
?DoubleAttribute@XMLElement@tinyxml2@@QBENPBD@Z
?DoubleValue@XMLAttribute@tinyxml2@@QBENXZ
?Empty@StrPair@tinyxml2@@QBE_NXZ
?EnsureCapacity@?$DynArray@D$0BE@@tinyxml2@@AAEXH@Z
?EnsureCapacity@?$DynArray@PAUBlock@?$MemPoolT@$0CE@@tinyxml2@@$09@tinyxml2@@AAEXH@Z
?EnsureCapacity@?$DynArray@PAUBlock@?$MemPoolT@$0CM@@tinyxml2@@$09@tinyxml2@@AAEXH@Z
?EnsureCapacity@?$DynArray@PAUBlock@?$MemPoolT@$0DA@@tinyxml2@@$09@tinyxml2@@AAEXH@Z
?EnsureCapacity@?$DynArray@PAUBlock@?$MemPoolT@$0DE@@tinyxml2@@$09@tinyxml2@@AAEXH@Z
?EnsureCapacity@?$DynArray@PBD$09@tinyxml2@@AAEXH@Z
?Error@XMLDocument@tinyxml2@@QBE_NXZ
?ErrorID@XMLDocument@tinyxml2@@QBE?AW4XMLError@2@XZ
?FNTConfigLoadFile@cocos2d@@YAPAVCCBMFontConfiguration@1@PBD@Z
?FNTConfigRemoveCache@cocos2d@@YAXXZ
?FillPadding@?$BasicWriter@D@fmt@@CAPADPADII_W@Z
?FillPadding@?$BasicWriter@_W@fmt@@CAPA_WPA_WII_W@Z
?FindAttribute@XMLElement@tinyxml2@@AAEPAVXMLAttribute@2@PBD@Z
?FindAttribute@XMLElement@tinyxml2@@QBEPBVXMLAttribute@2@PBD@Z
?FindOrCreateAttribute@XMLElement@tinyxml2@@AAEPAVXMLAttribute@2@PBD@Z
?FirstAttribute@XMLElement@tinyxml2@@QBEPBVXMLAttribute@2@XZ
?FirstChild@XMLConstHandle@tinyxml2@@QBE?BV12@XZ
?FirstChild@XMLHandle@tinyxml2@@QAE?AV12@XZ
?FirstChild@XMLNode@tinyxml2@@QAEPAV12@XZ
?FirstChild@XMLNode@tinyxml2@@QBEPBV12@XZ
?FirstChildElement@XMLConstHandle@tinyxml2@@QBE?BV12@PBD@Z
?FirstChildElement@XMLHandle@tinyxml2@@QAE?AV12@PBD@Z
?FirstChildElement@XMLNode@tinyxml2@@QAEPAVXMLElement@2@PBD@Z
?FirstChildElement@XMLNode@tinyxml2@@QBEPBVXMLElement@2@PBD@Z
?FloatAttribute@XMLElement@tinyxml2@@QBEMPBD@Z
?FloatValue@XMLAttribute@tinyxml2@@QBEMXZ
?Format@?$BasicFormatter@D@fmt@@QAEXV?$BasicStringRef@D@2@ABVArgList@2@@Z
?Format@?$BasicFormatter@_W@fmt@@QAEXV?$BasicStringRef@_W@2@ABVArgList@2@@Z
?Format@?$PrintfParser@D@internal@fmt@@QAEXAAV?$BasicWriter@D@3@V?$BasicStringRef@D@3@ABVArgList@3@@Z
?Format@?$PrintfParser@_W@internal@fmt@@QAEXAAV?$BasicWriter@_W@3@V?$BasicStringRef@_W@3@ABVArgList@3@@Z
?FormatDecimal@FormatInt@fmt@@AAEPAD_K@Z
?FormatSigned@FormatInt@fmt@@AAEX_J@Z
?Free@?$MemPoolT@$0CE@@tinyxml2@@UAEXPAX@Z
?Free@?$MemPoolT@$0CM@@tinyxml2@@UAEXPAX@Z
?Free@?$MemPoolT@$0DA@@tinyxml2@@UAEXPAX@Z
?Free@?$MemPoolT@$0DE@@tinyxml2@@UAEXPAX@Z
?GetBase@?$BasicWriter@D@fmt@@CAPADPAD@Z
?GetBase@?$BasicWriter@_W@fmt@@CAPA_WPA_W@Z
?GetCharacterRef@XMLUtil@tinyxml2@@SAPBDPBDPADPAH@Z
?GetDocument@XMLNode@tinyxml2@@QAEPAVXMLDocument@2@XZ
?GetDocument@XMLNode@tinyxml2@@QBEPBVXMLDocument@2@XZ
?GetErrorStr1@XMLDocument@tinyxml2@@QBEPBDXZ
?GetErrorStr2@XMLDocument@tinyxml2@@QBEPBDXZ
?GetStr@StrPair@tinyxml2@@QAEPBDXZ
?GetText@XMLElement@tinyxml2@@QBEPBDXZ
?GrowBuffer@?$BasicWriter@D@fmt@@AAEPADI@Z
?GrowBuffer@?$BasicWriter@_W@fmt@@AAEPA_WI@Z
?HandleArgIndex@?$PrintfParser@D@internal@fmt@@AAEABUArg@23@IAAPBD@Z
?HandleArgIndex@?$PrintfParser@_W@internal@fmt@@AAEABUArg@23@IAAPBD@Z
?HasBOM@XMLDocument@tinyxml2@@QBE_NXZ
?Identify@XMLDocument@tinyxml2@@QAEPADPADPAPAVXMLNode@2@@Z
?InitDocument@XMLDocument@tinyxml2@@AAEXXZ
?InsertAfterChild@XMLNode@tinyxml2@@QAEPAV12@PAV12@0@Z
?InsertEndChild@XMLNode@tinyxml2@@QAEPAV12@PAV12@@Z
?InsertFirstChild@XMLNode@tinyxml2@@QAEPAV12@PAV12@@Z
?IntAttribute@XMLElement@tinyxml2@@QBEHPBD@Z
?IntValue@XMLAttribute@tinyxml2@@QBEHXZ
?IsAlpha@XMLUtil@tinyxml2@@SAHE@Z
?IsAlphaNum@XMLUtil@tinyxml2@@SAHE@Z
?IsUTF8Continuation@XMLUtil@tinyxml2@@SAHD@Z
?IsWhiteSpace@XMLUtil@tinyxml2@@SA_ND@Z
?ItemSize@?$MemPoolT@$0CE@@tinyxml2@@UBEHXZ
?ItemSize@?$MemPoolT@$0CM@@tinyxml2@@UBEHXZ
?ItemSize@?$MemPoolT@$0DA@@tinyxml2@@UBEHXZ
?ItemSize@?$MemPoolT@$0DE@@tinyxml2@@UBEHXZ
?LastChild@XMLConstHandle@tinyxml2@@QBE?BV12@XZ
?LastChild@XMLHandle@tinyxml2@@QAE?AV12@XZ
?LastChild@XMLNode@tinyxml2@@QAEPAV12@XZ
?LastChild@XMLNode@tinyxml2@@QBEPBV12@XZ
?LastChildElement@XMLConstHandle@tinyxml2@@QBE?BV12@PBD@Z
?LastChildElement@XMLHandle@tinyxml2@@QAE?AV12@PBD@Z
?LastChildElement@XMLNode@tinyxml2@@QAEPAVXMLElement@2@PBD@Z
?LastChildElement@XMLNode@tinyxml2@@QBEPBVXMLElement@2@PBD@Z
?LinkEndChild@XMLNode@tinyxml2@@QAEPAV12@PAV12@@Z
?LoadFile@XMLDocument@tinyxml2@@QAE?AW4XMLError@2@PAU_iobuf@@@Z
?LoadFile@XMLDocument@tinyxml2@@QAE?AW4XMLError@2@PBD@Z
?Mem@?$DynArray@D$0BE@@tinyxml2@@QAEPADXZ
?Mem@?$DynArray@D$0BE@@tinyxml2@@QBEPBDXZ
?Name@XMLAttribute@tinyxml2@@QBEPBDXZ
?Name@XMLElement@tinyxml2@@QBEPBDXZ
?NewComment@XMLDocument@tinyxml2@@QAEPAVXMLComment@2@PBD@Z
?NewDeclaration@XMLDocument@tinyxml2@@QAEPAVXMLDeclaration@2@PBD@Z
?NewElement@XMLDocument@tinyxml2@@QAEPAVXMLElement@2@PBD@Z
?NewText@XMLDocument@tinyxml2@@QAEPAVXMLText@2@PBD@Z
?NewUnknown@XMLDocument@tinyxml2@@QAEPAVXMLUnknown@2@PBD@Z
?Next@XMLAttribute@tinyxml2@@QBEPBV12@XZ
?NextSibling@XMLConstHandle@tinyxml2@@QBE?BV12@XZ
?NextSibling@XMLHandle@tinyxml2@@QAE?AV12@XZ
?NextSibling@XMLNode@tinyxml2@@QAEPAV12@XZ
?NextSibling@XMLNode@tinyxml2@@QBEPBV12@XZ
?NextSiblingElement@XMLConstHandle@tinyxml2@@QBE?BV12@PBD@Z
?NextSiblingElement@XMLHandle@tinyxml2@@QAE?AV12@PBD@Z
?NextSiblingElement@XMLNode@tinyxml2@@QAEPAVXMLElement@2@PBD@Z
?NextSiblingElement@XMLNode@tinyxml2@@QBEPBVXMLElement@2@PBD@Z
?NoChildren@XMLNode@tinyxml2@@QBE_NXZ
?OpenElement@XMLPrinter@tinyxml2@@QAEXPBD@Z
?PVRImagesHavePremultipliedAlpha@CCTexture2D@cocos2d@@SAX_N@Z
?Parent@XMLNode@tinyxml2@@QAEPAV12@XZ
?Parent@XMLNode@tinyxml2@@QBEPBV12@XZ
?Parse@XMLDocument@tinyxml2@@QAE?AW4XMLError@2@PBDI@Z
?ParseArgIndex@?$BasicFormatter@D@fmt@@AAEABUArg@internal@2@AAPBD@Z
?ParseArgIndex@?$BasicFormatter@_W@fmt@@AAEABUArg@internal@2@AAPB_W@Z
?ParseAttributes@XMLElement@tinyxml2@@AAEPADPAD@Z
?ParseDeep@XMLAttribute@tinyxml2@@AAEPADPAD_N@Z
?ParseDeep@XMLComment@tinyxml2@@UAEPADPADPAVStrPair@2@@Z
?ParseDeep@XMLDeclaration@tinyxml2@@UAEPADPADPAVStrPair@2@@Z
?ParseDeep@XMLElement@tinyxml2@@UAEPADPADPAVStrPair@2@@Z
?ParseDeep@XMLNode@tinyxml2@@UAEPADPADPAVStrPair@2@@Z
?ParseDeep@XMLText@tinyxml2@@UAEPADPADPAVStrPair@2@@Z
?ParseDeep@XMLUnknown@tinyxml2@@UAEPADPADPAVStrPair@2@@Z
?ParseFlags@?$PrintfParser@D@internal@fmt@@AAEXAAUFormatSpec@3@AAPBD@Z
?ParseFlags@?$PrintfParser@_W@internal@fmt@@AAEXAAUFormatSpec@3@AAPB_W@Z
?ParseHeader@?$PrintfParser@D@internal@fmt@@AAEIAAPBDAAUFormatSpec@3@0@Z
?ParseHeader@?$PrintfParser@_W@internal@fmt@@AAEIAAPB_WAAUFormatSpec@3@AAPBD@Z
?ParseName@StrPair@tinyxml2@@QAEPADPAD@Z
?ParseText@StrPair@tinyxml2@@QAEPADPADPBDH@Z
?Pop@?$DynArray@PBD$09@tinyxml2@@QAEPBDXZ
?PreviousSibling@XMLConstHandle@tinyxml2@@QBE?BV12@XZ
?PreviousSibling@XMLHandle@tinyxml2@@QAE?AV12@XZ
?PreviousSibling@XMLNode@tinyxml2@@QAEPAV12@XZ
?PreviousSibling@XMLNode@tinyxml2@@QBEPBV12@XZ
?PreviousSiblingElement@XMLConstHandle@tinyxml2@@QBE?BV12@PBD@Z
?PreviousSiblingElement@XMLHandle@tinyxml2@@QAE?AV12@PBD@Z
?PreviousSiblingElement@XMLNode@tinyxml2@@QAEPAVXMLElement@2@PBD@Z
?PreviousSiblingElement@XMLNode@tinyxml2@@QBEPBVXMLElement@2@PBD@Z
?Print@XMLDocument@tinyxml2@@QAEXPAVXMLPrinter@2@@Z
?Print@XMLPrinter@tinyxml2@@AAAXPBDZZ
?PrintError@XMLDocument@tinyxml2@@QBEXXZ
?PrintSpace@XMLPrinter@tinyxml2@@AAEXH@Z
?PrintString@XMLPrinter@tinyxml2@@AAEXPBD_N@Z
?ProcessEntities@XMLDocument@tinyxml2@@QBE_NXZ
?Push@?$DynArray@D$0BE@@tinyxml2@@QAEXD@Z
?Push@?$DynArray@PAUBlock@?$MemPoolT@$0CE@@tinyxml2@@$09@tinyxml2@@QAEXPAUBlock@?$MemPoolT@$0CE@@2@@Z
?Push@?$DynArray@PAUBlock@?$MemPoolT@$0CM@@tinyxml2@@$09@tinyxml2@@QAEXPAUBlock@?$MemPoolT@$0CM@@2@@Z
?Push@?$DynArray@PAUBlock@?$MemPoolT@$0DA@@tinyxml2@@$09@tinyxml2@@QAEXPAUBlock@?$MemPoolT@$0DA@@2@@Z
?Push@?$DynArray@PAUBlock@?$MemPoolT@$0DE@@tinyxml2@@$09@tinyxml2@@QAEXPAUBlock@?$MemPoolT@$0DE@@2@@Z
?Push@?$DynArray@PBD$09@tinyxml2@@QAEXPBD@Z
?PushArr@?$DynArray@D$0BE@@tinyxml2@@QAEPADH@Z
?PushAttribute@XMLPrinter@tinyxml2@@QAEXPBD0@Z
?PushAttribute@XMLPrinter@tinyxml2@@QAEXPBDH@Z
?PushAttribute@XMLPrinter@tinyxml2@@QAEXPBDI@Z
?PushAttribute@XMLPrinter@tinyxml2@@QAEXPBDN@Z
?PushAttribute@XMLPrinter@tinyxml2@@QAEXPBD_N@Z
?PushComment@XMLPrinter@tinyxml2@@QAEXPBD@Z
?PushDeclaration@XMLPrinter@tinyxml2@@QAEXPBD@Z
?PushHeader@XMLPrinter@tinyxml2@@QAEX_N0@Z
?PushText@XMLPrinter@tinyxml2@@QAEXH@Z
?PushText@XMLPrinter@tinyxml2@@QAEXI@Z
?PushText@XMLPrinter@tinyxml2@@QAEXM@Z
?PushText@XMLPrinter@tinyxml2@@QAEXN@Z
?PushText@XMLPrinter@tinyxml2@@QAEXPBD_N@Z
?PushText@XMLPrinter@tinyxml2@@QAEX_N@Z
?PushUnknown@XMLPrinter@tinyxml2@@QAEXPBD@Z
?QueryBoolAttribute@XMLElement@tinyxml2@@QBE?AW4XMLError@2@PBDPA_N@Z
?QueryBoolText@XMLElement@tinyxml2@@QBE?AW4XMLError@2@PA_N@Z
?QueryBoolValue@XMLAttribute@tinyxml2@@QBE?AW4XMLError@2@PA_N@Z
?QueryDoubleAttribute@XMLElement@tinyxml2@@QBE?AW4XMLError@2@PBDPAN@Z
?QueryDoubleText@XMLElement@tinyxml2@@QBE?AW4XMLError@2@PAN@Z
?QueryDoubleValue@XMLAttribute@tinyxml2@@QBE?AW4XMLError@2@PAN@Z
?QueryFloatAttribute@XMLElement@tinyxml2@@QBE?AW4XMLError@2@PBDPAM@Z
?QueryFloatText@XMLElement@tinyxml2@@QBE?AW4XMLError@2@PAM@Z
?QueryFloatValue@XMLAttribute@tinyxml2@@QBE?AW4XMLError@2@PAM@Z
?QueryIntAttribute@XMLElement@tinyxml2@@QBE?AW4XMLError@2@PBDPAH@Z
?QueryIntText@XMLElement@tinyxml2@@QBE?AW4XMLError@2@PAH@Z
?QueryIntValue@XMLAttribute@tinyxml2@@QBE?AW4XMLError@2@PAH@Z
?QueryUnsignedAttribute@XMLElement@tinyxml2@@QBE?AW4XMLError@2@PBDPAI@Z
?QueryUnsignedText@XMLElement@tinyxml2@@QBE?AW4XMLError@2@PAI@Z
?QueryUnsignedValue@XMLAttribute@tinyxml2@@QBE?AW4XMLError@2@PAI@Z
?ReadBOM@XMLUtil@tinyxml2@@SAPBDPBDPA_N@Z
?Reset@StrPair@tinyxml2@@AAEXXZ
?RootElement@XMLDocument@tinyxml2@@QAEPAVXMLElement@2@XZ
?RootElement@XMLDocument@tinyxml2@@QBEPBVXMLElement@2@XZ
?SaveFile@XMLDocument@tinyxml2@@QAE?AW4XMLError@2@PAU_iobuf@@_N@Z
?SaveFile@XMLDocument@tinyxml2@@QAE?AW4XMLError@2@PBD_N@Z
?SealElement@XMLPrinter@tinyxml2@@AAEXXZ
?Set@StrPair@tinyxml2@@QAEXPAD0H@Z
?SetAttribute@XMLAttribute@tinyxml2@@QAEXH@Z
?SetAttribute@XMLAttribute@tinyxml2@@QAEXI@Z
?SetAttribute@XMLAttribute@tinyxml2@@QAEXM@Z
?SetAttribute@XMLAttribute@tinyxml2@@QAEXN@Z
?SetAttribute@XMLAttribute@tinyxml2@@QAEXPBD@Z
?SetAttribute@XMLAttribute@tinyxml2@@QAEX_N@Z
?SetAttribute@XMLElement@tinyxml2@@QAEXPBD0@Z
?SetAttribute@XMLElement@tinyxml2@@QAEXPBDH@Z
?SetAttribute@XMLElement@tinyxml2@@QAEXPBDI@Z
?SetAttribute@XMLElement@tinyxml2@@QAEXPBDN@Z
?SetAttribute@XMLElement@tinyxml2@@QAEXPBD_N@Z
?SetBOM@XMLDocument@tinyxml2@@QAEX_N@Z
?SetCData@XMLText@tinyxml2@@QAEX_N@Z
?SetError@XMLDocument@tinyxml2@@QAEXW4XMLError@2@PBD1@Z
?SetInternedStr@StrPair@tinyxml2@@QAEXPBD@Z
?SetName@XMLAttribute@tinyxml2@@AAEXPBD@Z
?SetName@XMLElement@tinyxml2@@QAEXPBD_N@Z
?SetStr@StrPair@tinyxml2@@QAEXPBDH@Z
?SetTracked@?$MemPoolT@$0CE@@tinyxml2@@UAEXXZ
?SetTracked@?$MemPoolT@$0CM@@tinyxml2@@UAEXXZ
?SetTracked@?$MemPoolT@$0DA@@tinyxml2@@UAEXXZ
?SetTracked@?$MemPoolT@$0DE@@tinyxml2@@UAEXXZ
?SetValue@XMLNode@tinyxml2@@QAEXPBD_N@Z
?ShallowClone@XMLComment@tinyxml2@@UBEPAVXMLNode@2@PAVXMLDocument@2@@Z
?ShallowClone@XMLDeclaration@tinyxml2@@UBEPAVXMLNode@2@PAVXMLDocument@2@@Z
?ShallowClone@XMLDocument@tinyxml2@@UBEPAVXMLNode@2@PAV12@@Z
?ShallowClone@XMLElement@tinyxml2@@UBEPAVXMLNode@2@PAVXMLDocument@2@@Z
?ShallowClone@XMLText@tinyxml2@@UBEPAVXMLNode@2@PAVXMLDocument@2@@Z
?ShallowClone@XMLUnknown@tinyxml2@@UBEPAVXMLNode@2@PAVXMLDocument@2@@Z
?ShallowEqual@XMLComment@tinyxml2@@UBE_NPBVXMLNode@2@@Z
?ShallowEqual@XMLDeclaration@tinyxml2@@UBE_NPBVXMLNode@2@@Z
?ShallowEqual@XMLDocument@tinyxml2@@UBE_NPBVXMLNode@2@@Z
?ShallowEqual@XMLElement@tinyxml2@@UBE_NPBVXMLNode@2@@Z
?ShallowEqual@XMLText@tinyxml2@@UBE_NPBVXMLNode@2@@Z
?ShallowEqual@XMLUnknown@tinyxml2@@UBE_NPBVXMLNode@2@@Z
?Size@?$DynArray@D$0BE@@tinyxml2@@QBEHXZ
?Size@?$DynArray@PAUBlock@?$MemPoolT@$0CE@@tinyxml2@@$09@tinyxml2@@QBEHXZ
?Size@?$DynArray@PAUBlock@?$MemPoolT@$0CM@@tinyxml2@@$09@tinyxml2@@QBEHXZ
?Size@?$DynArray@PAUBlock@?$MemPoolT@$0DA@@tinyxml2@@$09@tinyxml2@@QBEHXZ
?Size@?$DynArray@PAUBlock@?$MemPoolT@$0DE@@tinyxml2@@$09@tinyxml2@@QBEHXZ
?SkipWhiteSpace@XMLUtil@tinyxml2@@SAPADPAD@Z
?SkipWhiteSpace@XMLUtil@tinyxml2@@SAPBDPBD@Z
?StringEqual@XMLUtil@tinyxml2@@SA_NPBD0H@Z
?ToBool@XMLUtil@tinyxml2@@SA_NPBDPA_N@Z
?ToComment@XMLComment@tinyxml2@@UAEPAV12@XZ
?ToComment@XMLComment@tinyxml2@@UBEPBV12@XZ
?ToComment@XMLNode@tinyxml2@@UAEPAVXMLComment@2@XZ
?ToComment@XMLNode@tinyxml2@@UBEPBVXMLComment@2@XZ
?ToDeclaration@XMLConstHandle@tinyxml2@@QBEPBVXMLDeclaration@2@XZ
?ToDeclaration@XMLDeclaration@tinyxml2@@UAEPAV12@XZ
?ToDeclaration@XMLDeclaration@tinyxml2@@UBEPBV12@XZ
?ToDeclaration@XMLHandle@tinyxml2@@QAEPAVXMLDeclaration@2@XZ
?ToDeclaration@XMLNode@tinyxml2@@UAEPAVXMLDeclaration@2@XZ
?ToDeclaration@XMLNode@tinyxml2@@UBEPBVXMLDeclaration@2@XZ
?ToDocument@XMLDocument@tinyxml2@@UAEPAV12@XZ
?ToDocument@XMLDocument@tinyxml2@@UBEPBV12@XZ
?ToDocument@XMLNode@tinyxml2@@UAEPAVXMLDocument@2@XZ
?ToDocument@XMLNode@tinyxml2@@UBEPBVXMLDocument@2@XZ
?ToDouble@XMLUtil@tinyxml2@@SA_NPBDPAN@Z
?ToElement@XMLConstHandle@tinyxml2@@QBEPBVXMLElement@2@XZ
?ToElement@XMLElement@tinyxml2@@UAEPAV12@XZ
?ToElement@XMLElement@tinyxml2@@UBEPBV12@XZ
?ToElement@XMLHandle@tinyxml2@@QAEPAVXMLElement@2@XZ
?ToElement@XMLNode@tinyxml2@@UAEPAVXMLElement@2@XZ
?ToElement@XMLNode@tinyxml2@@UBEPBVXMLElement@2@XZ
?ToFloat@XMLUtil@tinyxml2@@SA_NPBDPAM@Z
?ToInt@XMLUtil@tinyxml2@@SA_NPBDPAH@Z
?ToNode@XMLConstHandle@tinyxml2@@QBEPBVXMLNode@2@XZ
?ToNode@XMLHandle@tinyxml2@@QAEPAVXMLNode@2@XZ
?ToStr@XMLUtil@tinyxml2@@SAXHPADH@Z
?ToStr@XMLUtil@tinyxml2@@SAXIPADH@Z
?ToStr@XMLUtil@tinyxml2@@SAXMPADH@Z
?ToStr@XMLUtil@tinyxml2@@SAXNPADH@Z
?ToStr@XMLUtil@tinyxml2@@SAX_NPADH@Z
?ToText@XMLConstHandle@tinyxml2@@QBEPBVXMLText@2@XZ
?ToText@XMLHandle@tinyxml2@@QAEPAVXMLText@2@XZ
?ToText@XMLNode@tinyxml2@@UAEPAVXMLText@2@XZ
?ToText@XMLNode@tinyxml2@@UBEPBVXMLText@2@XZ
?ToText@XMLText@tinyxml2@@UAEPAV12@XZ
?ToText@XMLText@tinyxml2@@UBEPBV12@XZ
?ToUnknown@XMLConstHandle@tinyxml2@@QBEPBVXMLUnknown@2@XZ
?ToUnknown@XMLHandle@tinyxml2@@QAEPAVXMLUnknown@2@XZ
?ToUnknown@XMLNode@tinyxml2@@UAEPAVXMLUnknown@2@XZ
?ToUnknown@XMLNode@tinyxml2@@UBEPBVXMLUnknown@2@XZ
?ToUnknown@XMLUnknown@tinyxml2@@UAEPAV12@XZ
?ToUnknown@XMLUnknown@tinyxml2@@UBEPBV12@XZ
?ToUnsigned@XMLUtil@tinyxml2@@SA_NPBDPAI@Z
?Unlink@XMLNode@tinyxml2@@AAEXPAV12@@Z
?UnsignedAttribute@XMLElement@tinyxml2@@QBEIPBD@Z
?UnsignedValue@XMLAttribute@tinyxml2@@QBEIXZ
?Value@XMLAttribute@tinyxml2@@QBEPBDXZ
?Value@XMLNode@tinyxml2@@QBEPBDXZ
?Visit@XMLPrinter@tinyxml2@@UAE_NABVXMLComment@2@@Z
?Visit@XMLPrinter@tinyxml2@@UAE_NABVXMLDeclaration@2@@Z
?Visit@XMLPrinter@tinyxml2@@UAE_NABVXMLText@2@@Z
?Visit@XMLPrinter@tinyxml2@@UAE_NABVXMLUnknown@2@@Z
?Visit@XMLVisitor@tinyxml2@@UAE_NABVXMLComment@2@@Z
?Visit@XMLVisitor@tinyxml2@@UAE_NABVXMLDeclaration@2@@Z
?Visit@XMLVisitor@tinyxml2@@UAE_NABVXMLText@2@@Z
?Visit@XMLVisitor@tinyxml2@@UAE_NABVXMLUnknown@2@@Z
?VisitEnter@XMLPrinter@tinyxml2@@UAE_NABVXMLDocument@2@@Z
?VisitEnter@XMLPrinter@tinyxml2@@UAE_NABVXMLElement@2@PBVXMLAttribute@2@@Z
?VisitEnter@XMLVisitor@tinyxml2@@UAE_NABVXMLDocument@2@@Z
?VisitEnter@XMLVisitor@tinyxml2@@UAE_NABVXMLElement@2@PBVXMLAttribute@2@@Z
?VisitExit@XMLPrinter@tinyxml2@@UAE_NABVXMLDocument@2@@Z
?VisitExit@XMLPrinter@tinyxml2@@UAE_NABVXMLElement@2@@Z
?VisitExit@XMLVisitor@tinyxml2@@UAE_NABVXMLDocument@2@@Z
?VisitExit@XMLVisitor@tinyxml2@@UAE_NABVXMLElement@2@@Z
?WhitespaceMode@XMLDocument@tinyxml2@@QBE?AW4Whitespace@2@XZ
?__CCAffineTransformMake@cocos2d@@YA?AUCCAffineTransform@1@MMMMMM@Z
?__CCPointApplyAffineTransform@cocos2d@@YA?AVCCPoint@1@ABV21@ABUCCAffineTransform@1@@Z
?__CCSizeApplyAffineTransform@cocos2d@@YA?AVCCSize@1@ABV21@ABUCCAffineTransform@1@@Z
?_initWithJpgData@CCImage@cocos2d@@IAE_NPAXH@Z
?_initWithPngData@CCImage@cocos2d@@IAE_NPAXH@Z
?_initWithRawData@CCImage@cocos2d@@IAE_NPAXHHHH_N@Z
?_initWithTiffData@CCImage@cocos2d@@IAE_NPAXH@Z
?_initWithWebpData@CCImage@cocos2d@@IAE_NPAXH@Z
?_prepareTextDefinition@CCLabelTTF@cocos2d@@IAE?AU_ccFontDefinition@2@_N@Z
?_saveImageToJPG@CCImage@cocos2d@@IAE_NPBD@Z
?_saveImageToPNG@CCImage@cocos2d@@IAE_NPBD_N@Z
?_setZOrder@CCNode@cocos2d@@UAEXH@Z
?_updateWithTextDefinition@CCLabelTTF@cocos2d@@IAEXAAU_ccFontDefinition@2@_N@Z
?absolutePosition@CCParallaxNode@cocos2d@@AAE?AVCCPoint@2@XZ
?acceptVisitor@CCArray@cocos2d@@UAEXAAVCCDataVisitor@2@@Z
?acceptVisitor@CCBool@cocos2d@@UAEXAAVCCDataVisitor@2@@Z
?acceptVisitor@CCDictionary@cocos2d@@UAEXAAVCCDataVisitor@2@@Z
?acceptVisitor@CCDouble@cocos2d@@UAEXAAVCCDataVisitor@2@@Z
?acceptVisitor@CCFloat@cocos2d@@UAEXAAVCCDataVisitor@2@@Z
?acceptVisitor@CCInteger@cocos2d@@UAEXAAVCCDataVisitor@2@@Z
?acceptVisitor@CCObject@cocos2d@@UAEXAAVCCDataVisitor@2@@Z
?acceptVisitor@CCSet@cocos2d@@UAEXAAVCCDataVisitor@2@@Z
?acceptVisitor@CCString@cocos2d@@UAEXAAVCCDataVisitor@2@@Z
?action@CCTransitionMoveInL@cocos2d@@UAEPAVCCActionInterval@2@XZ
?action@CCTransitionSlideInB@cocos2d@@UAEPAVCCActionInterval@2@XZ
?action@CCTransitionSlideInL@cocos2d@@UAEPAVCCActionInterval@2@XZ
?action@CCTransitionSlideInR@cocos2d@@UAEPAVCCActionInterval@2@XZ
?action@CCTransitionSlideInT@cocos2d@@UAEPAVCCActionInterval@2@XZ
?action@CCTransitionSplitCols@cocos2d@@UAEPAVCCActionInterval@2@XZ
?action@CCTransitionSplitRows@cocos2d@@UAEPAVCCActionInterval@2@XZ
?actionAllocWithHashElement@CCActionManager@cocos2d@@IAEXPAU_hashElement@2@@Z
?actionWithSize@CCTransitionFadeBL@cocos2d@@UAEPAVCCActionInterval@2@ABVCCSize@2@@Z
?actionWithSize@CCTransitionFadeDown@cocos2d@@UAEPAVCCActionInterval@2@ABVCCSize@2@@Z
?actionWithSize@CCTransitionFadeTR@cocos2d@@UAEPAVCCActionInterval@2@ABVCCSize@2@@Z
?actionWithSize@CCTransitionFadeUp@cocos2d@@UAEPAVCCActionInterval@2@ABVCCSize@2@@Z
?actionWithSize@CCTransitionPageTurn@cocos2d@@QAEPAVCCActionInterval@2@ABVCCSize@2@@Z
?activate@CCMenuItem@cocos2d@@UAEXXZ
?activate@CCMenuItemLabel@cocos2d@@UAEXXZ
?activate@CCMenuItemToggle@cocos2d@@UAEXXZ
?add@CCComponentContainer@cocos2d@@UAE_NPAVCCComponent@2@@Z
?addAction@CCActionManager@cocos2d@@QAEXPAVCCAction@2@PAVCCNode@2@_N@Z
?addAnimation@CCAnimationCache@cocos2d@@QAEXPAVCCAnimation@2@PBD@Z
?addAnimationsWithDictionary@CCAnimationCache@cocos2d@@QAEXPAVCCDictionary@2@PBD@Z
?addAnimationsWithFile@CCAnimationCache@cocos2d@@QAEXPBD@Z
?addAttribute@CCGLProgram@cocos2d@@QAEXPBDI@Z
?addBoolValuesToMapForKey@DS_Dictionary@@QAEXAAV?$map@V?$basic_string@DU?$char_traits@D@std@@V?$allocator@D@2@@std@@_NU?$less@V?$basic_string@DU?$char_traits@D@std@@V?$allocator@D@2@@std@@@2@V?$allocator@U?$pair@$$CBV?$basic_string@DU?$char_traits@D@std@@V?$allocator@D@2@@std@@_N@std@@@2@@std@@PBD_N@Z
?addBoolValuesToMapForKeySpecial@DS_Dictionary@@QAEXAAV?$map@V?$basic_string@DU?$char_traits@D@std@@V?$allocator@D@2@@std@@_NU?$less@V?$basic_string@DU?$char_traits@D@std@@V?$allocator@D@2@@std@@@2@V?$allocator@U?$pair@$$CBV?$basic_string@DU?$char_traits@D@std@@V?$allocator@D@2@@std@@_N@std@@@2@@std@@PBD_N@Z
?addChild@CCMenu@cocos2d@@UAEXPAVCCNode@2@@Z
?addChild@CCMenu@cocos2d@@UAEXPAVCCNode@2@H@Z
?addChild@CCMenu@cocos2d@@UAEXPAVCCNode@2@HH@Z
?addChild@CCNode@cocos2d@@UAEXPAV12@@Z
?addChild@CCNode@cocos2d@@UAEXPAV12@H@Z
?addChild@CCNode@cocos2d@@UAEXPAV12@HH@Z
?addChild@CCParallaxNode@cocos2d@@UAEXPAVCCNode@2@IABVCCPoint@2@1@Z
?addChild@CCParallaxNode@cocos2d@@UAEXPAVCCNode@2@IH@Z
?addChild@CCParticleBatchNode@cocos2d@@UAEXPAVCCNode@2@@Z
?addChild@CCParticleBatchNode@cocos2d@@UAEXPAVCCNode@2@H@Z
?addChild@CCParticleBatchNode@cocos2d@@UAEXPAVCCNode@2@HH@Z
?addChild@CCSprite@cocos2d@@UAEXPAVCCNode@2@@Z
?addChild@CCSprite@cocos2d@@UAEXPAVCCNode@2@H@Z
?addChild@CCSprite@cocos2d@@UAEXPAVCCNode@2@HH@Z
?addChild@CCSpriteBatchNode@cocos2d@@UAEXPAVCCNode@2@@Z
?addChild@CCSpriteBatchNode@cocos2d@@UAEXPAVCCNode@2@H@Z
?addChild@CCSpriteBatchNode@cocos2d@@UAEXPAVCCNode@2@HH@Z
?addChild@CCTMXLayer@cocos2d@@UAEXPAVCCNode@2@HH@Z
?addChildHelper@CCParticleBatchNode@cocos2d@@AAEIPAVCCParticleSystem@2@HH@Z
?addComponent@CCNode@cocos2d@@UAE_NPAVCCComponent@2@@Z
?addControlPoint@CCPointArray@cocos2d@@QAEXVCCPoint@2@@Z
?addDelegate@CCIMEDispatcher@cocos2d@@IAEXPAVCCIMEDelegate@2@@Z
?addDelegate@CCKeyboardDispatcher@cocos2d@@QAEXPAVCCKeyboardDelegate@2@@Z
?addDelegate@CCKeypadDispatcher@cocos2d@@QAEXPAVCCKeypadDelegate@2@@Z
?addDelegate@CCMouseDispatcher@cocos2d@@QAEXPAVCCMouseDelegate@2@@Z
?addDict@CCContentManager@@QAEPAVCCDictionary@cocos2d@@PBD_N@Z
?addDictDS@CCContentManager@@QAEPAVCCDictionary@cocos2d@@PBD@Z
?addETCImage@CCTextureCache@cocos2d@@QAEPAVCCTexture2D@2@PBD@Z
?addImage@CCTextureCache@cocos2d@@QAEPAVCCTexture2D@2@PBD_N@Z
?addImageAsync@CCTextureCache@cocos2d@@QAEXPBDPAVCCObject@2@P832@AEX1@Z@Z
?addImageAsyncCallBack@CCTextureCache@cocos2d@@AAEXM@Z
?addLayer@CCLayerMultiplex@cocos2d@@QAEXPAVCCLayer@2@@Z
?addObject@CCArray@cocos2d@@QAEXPAVCCObject@2@@Z
?addObject@CCAutoreleasePool@cocos2d@@QAEXPAVCCObject@2@@Z
?addObject@CCPoolManager@cocos2d@@QAEXPAVCCObject@2@@Z
?addObject@CCSet@cocos2d@@QAEXPAVCCObject@2@@Z
?addObjectNew@CCArray@cocos2d@@QAEXPAVCCObject@2@@Z
?addObjectsFromArray@CCArray@cocos2d@@QAEXPAV12@@Z
?addObserver@CCNotificationCenter@cocos2d@@QAEXPAVCCObject@2@P832@AEX0@ZPBD0@Z
?addPVRImage@CCTextureCache@cocos2d@@QAEPAVCCTexture2D@2@PBD@Z
?addParticle@CCParticleSystem@cocos2d@@QAE_NXZ
?addProgram@CCShaderCache@cocos2d@@QAEXPAVCCGLProgram@2@PBD@Z
?addSearchPath@CCFileUtils@cocos2d@@UAEXPBD@Z
?addSearchPath@CCFileUtilsWin32@cocos2d@@UAEXPBD@Z
?addSearchResolutionsOrder@CCFileUtils@cocos2d@@UAEXPBD@Z
?addSpriteFrame@CCAnimation@cocos2d@@QAEXPAVCCSpriteFrame@2@@Z
?addSpriteFrame@CCSpriteFrameCache@cocos2d@@QAEXPAVCCSpriteFrame@2@PBD@Z
?addSpriteFrameWithFileName@CCAnimation@cocos2d@@QAEXPBD@Z
?addSpriteFrameWithTexture@CCAnimation@cocos2d@@QAEXPAVCCTexture2D@2@ABVCCRect@2@@Z
?addSpriteFramesWithDictionary@CCSpriteFrameCache@cocos2d@@AAEXPAVCCDictionary@2@PAVCCTexture2D@2@@Z
?addSpriteFramesWithFile@CCSpriteFrameCache@cocos2d@@QAEXPBD0@Z
?addSpriteFramesWithFile@CCSpriteFrameCache@cocos2d@@QAEXPBD@Z
?addSpriteFramesWithFile@CCSpriteFrameCache@cocos2d@@QAEXPBDPAVCCTexture2D@2@@Z
?addSpriteWithoutQuad@CCSpriteBatchNode@cocos2d@@IAEPAV12@PAVCCSprite@2@IH@Z
?addStandardDelegate@CCTouchDispatcher@cocos2d@@QAEXPAVCCTouchDelegate@2@H@Z
?addSubItem@CCMenuItemToggle@cocos2d@@QAEXPAVCCMenuItem@2@@Z
?addSuffix@CCFileUtils@cocos2d@@MAE?AV?$basic_string@DU?$char_traits@D@std@@V?$allocator@D@2@@std@@V34@0@Z
?addTargetedDelegate@CCTouchDispatcher@cocos2d@@QAEXPAVCCTouchDelegate@2@H_N@Z
?addUIImage@CCTextureCache@cocos2d@@QAEPAVCCTexture2D@2@PAVCCImage@2@PBD@Z
?afterDraw@CCGridBase@cocos2d@@QAEXPAVCCNode@2@@Z
?align@?$TypeSpec@$0A@@fmt@@QBE?AW4Alignment@2@XZ
?align@?$TypeSpec@$0FI@@fmt@@QBE?AW4Alignment@2@XZ
?align@?$TypeSpec@$0GC@@fmt@@QBE?AW4Alignment@2@XZ
?align@?$TypeSpec@$0GP@@fmt@@QBE?AW4Alignment@2@XZ
?align@?$TypeSpec@$0HI@@fmt@@QBE?AW4Alignment@2@XZ
?alignItemsHorizontally@CCMenu@cocos2d@@QAEXXZ
?alignItemsHorizontallyWithPadding@CCMenu@cocos2d@@QAEXM@Z
?alignItemsInColumns@CCMenu@cocos2d@@QAAXIZZ
?alignItemsInColumns@CCMenu@cocos2d@@QAEXIPAD@Z
?alignItemsInColumnsWithArray@CCMenu@cocos2d@@QAEXPAVCCArray@2@@Z
?alignItemsInRows@CCMenu@cocos2d@@QAAXIZZ
?alignItemsInRows@CCMenu@cocos2d@@QAEXIPAD@Z
?alignItemsInRowsWithArray@CCMenu@cocos2d@@QAEXPAVCCArray@2@@Z
?alignItemsVertically@CCMenu@cocos2d@@QAEXXZ
?alignItemsVerticallyWithPadding@CCMenu@cocos2d@@QAEXM@Z
?allKeys@CCDictionary@cocos2d@@QAEPAVCCArray@2@XZ
?allKeysForObject@CCDictionary@cocos2d@@QAEPAVCCArray@2@PAVCCObject@2@@Z
?alloc@CCComponentContainer@cocos2d@@AAEXXZ
?allocMemory@CCParticleSystemQuad@cocos2d@@AAE_NXZ
?animationByName@CCAnimationCache@cocos2d@@QAEPAVCCAnimation@2@PBD@Z
?anyObject@CCSet@cocos2d@@QAEPAVCCObject@2@XZ
?appendChild@CCSpriteBatchNode@cocos2d@@QAEXPAVCCSprite@2@@Z
?appendIn@CCScheduler@cocos2d@@AAEXPAPAU_listEntry@2@PAVCCObject@2@_N@Z
?appendTileForGID@CCTMXLayer@cocos2d@@AAEPAVCCSprite@2@IABVCCPoint@2@@Z
?applicationWillBecomeActive@CCApplicationProtocol@cocos2d@@UAEXXZ
?applicationWillResignActive@CCApplicationProtocol@cocos2d@@UAEXXZ
?atlasIndexForChild@CCSpriteBatchNode@cocos2d@@QAEIPAVCCSprite@2@H@Z
?atlasIndexForExistantZ@CCTMXLayer@cocos2d@@AAEII@Z
?atlasIndexForNewZ@CCTMXLayer@cocos2d@@AAEIH@Z
?attachDelegateWithIME@CCIMEDispatcher@cocos2d@@IAE_NPAVCCIMEDelegate@2@@Z
?attachWithIME@CCIMEDelegate@cocos2d@@UAE_NXZ
?attachWithIME@CCTextFieldTTF@cocos2d@@UAE_NXZ
?autorelease@CCObject@cocos2d@@QAEPAV12@XZ
?base64DecodeEnc@ZipUtils@cocos2d@@SA?AV?$basic_string@DU?$char_traits@D@std@@V?$allocator@D@2@@std@@V34@0@Z
?base64EncodeEnc@ZipUtils@cocos2d@@SA?AV?$basic_string@DU?$char_traits@D@std@@V?$allocator@D@2@@std@@V34@0@Z
?base64URLDecode@ZipUtils@cocos2d@@SA?AV?$basic_string@DU?$char_traits@D@std@@V?$allocator@D@2@@std@@V34@@Z
?base64URLEncode@ZipUtils@cocos2d@@SA?AV?$basic_string@DU?$char_traits@D@std@@V?$allocator@D@2@@std@@V34@@Z
?beforeDraw@CCGridBase@cocos2d@@QAEXXZ
?begin@CCRenderTexture@cocos2d@@QAEXXZ
?begin@CCSet@cocos2d@@QAE?AV?$_Tree_const_iterator@V?$_Tree_val@U?$_Tree_simple_types@PAVCCObject@cocos2d@@@std@@@std@@@std@@XZ
?beginWithClear@CCRenderTexture@cocos2d@@AAEXMMMMMHI@Z
?beginWithClear@CCRenderTexture@cocos2d@@QAEXMMMM@Z
?beginWithClear@CCRenderTexture@cocos2d@@QAEXMMMMM@Z
?beginWithClear@CCRenderTexture@cocos2d@@QAEXMMMMMH@Z
?bitsPerPixelForFormat@CCTexture2D@cocos2d@@QAEIW4CCTexture2DPixelFormat@2@@Z
?bitsPerPixelForFormat@CCTexture2D@cocos2d@@QAEIXZ
?blit@CCGrid3D@cocos2d@@UAEXXZ
?blit@CCGridBase@cocos2d@@UAEXXZ
?blit@CCTiledGrid3D@cocos2d@@UAEXXZ
?boolValue@CCString@cocos2d@@QBE_NXZ
?bounceTime@CCEaseBounce@cocos2d@@QAEMM@Z
?boundaryTexCoord@CCProgressTimer@cocos2d@@IAE?AVCCPoint@2@D@Z
?boundingBox@CCNode@cocos2d@@QAE?AVCCRect@2@XZ
?buildWithMapInfo@CCTMXTiledMap@cocos2d@@AAEXPAVCCTMXMapInfo@2@@Z
?c_str@?$BasicStringRef@D@fmt@@QBEPBDXZ
?c_str@?$BasicStringRef@_W@fmt@@QBEPB_WXZ
?c_str@?$BasicWriter@D@fmt@@QBEPBDXZ
?c_str@FormatInt@fmt@@QBEPBDXZ
?c_str@UTF16ToUTF8@internal@fmt@@QBEPBDXZ
?c_str@UTF8ToUTF16@internal@fmt@@QBEPB_WXZ
?calculateDeltaTime@CCDirector@cocos2d@@IAEXXZ
?calculateItemsToRender@CCTileMapAtlas@cocos2d@@AAEXXZ
?calculateLayerOffset@CCTMXLayer@cocos2d@@AAE?AVCCPoint@2@ABV32@@Z
?calculateMPF@CCDirector@cocos2d@@IAEXXZ
?calculateMaxItems@CCAtlasNode@cocos2d@@AAEXXZ
?calculateVertexPoints@CCGrid3D@cocos2d@@UAEXXZ
?calculateVertexPoints@CCGridBase@cocos2d@@UAEXXZ
?calculateVertexPoints@CCTiledGrid3D@cocos2d@@UAEXXZ
?canAttachWithIME@CCIMEDelegate@cocos2d@@MAE_NXZ
?canAttachWithIME@CCTextFieldTTF@cocos2d@@MAE_NXZ
?canDetachWithIME@CCIMEDelegate@cocos2d@@MAE_NXZ
?canDetachWithIME@CCTextFieldTTF@cocos2d@@MAE_NXZ
?canEncode@CCObject@cocos2d@@UAE_NXZ
?capacity@CCArray@cocos2d@@QBEIXZ
?capture@CCEGLView@cocos2d@@QAEXXZ
?ccCardinalSplineAt@cocos2d@@YA?AVCCPoint@1@AAV21@000MM@Z
?ccChecksumPvr@ZipUtils@cocos2d@@CAIPBIH@Z
?ccDecodeEncodedPvr@ZipUtils@cocos2d@@CAXPAIH@Z
?ccDeflateMemory@ZipUtils@cocos2d@@SAHPAEIPAPAE@Z
?ccDrawCardinalSpline@cocos2d@@YAXPAVCCPointArray@1@MI@Z
?ccDrawCatmullRom@cocos2d@@YAXPAVCCPointArray@1@I@Z
?ccDrawCircle@cocos2d@@YAXABVCCPoint@1@MMI_N@Z
?ccDrawCircle@cocos2d@@YAXABVCCPoint@1@MMI_NMM@Z
?ccDrawColor4B@cocos2d@@YAXEEEE@Z
?ccDrawColor4F@cocos2d@@YAXMMMM@Z
?ccDrawCubicBezier@cocos2d@@YAXABVCCPoint@1@000I@Z
?ccDrawFilledCircle@cocos2d@@YAXABVCCPoint@1@MMI@Z
?ccDrawFree@cocos2d@@YAXXZ
?ccDrawInit@cocos2d@@YAXXZ
?ccDrawLine@cocos2d@@YAXABVCCPoint@1@0@Z
?ccDrawLines@cocos2d@@YAXPBVCCPoint@1@I@Z
?ccDrawPoint@cocos2d@@YAXABVCCPoint@1@@Z
?ccDrawPoints@cocos2d@@YAXPBVCCPoint@1@I@Z
?ccDrawPoly@cocos2d@@YAXPBVCCPoint@1@I_N@Z
?ccDrawQuadBezier@cocos2d@@YAXABVCCPoint@1@00I@Z
?ccDrawRect@cocos2d@@YAXVCCPoint@1@0@Z
?ccDrawSolidPoly@cocos2d@@YAXPBVCCPoint@1@IU_ccColor4F@1@@Z
?ccDrawSolidRect@cocos2d@@YAXVCCPoint@1@0U_ccColor4F@1@@Z
?ccExSwitchMask_frag@cocos2d@@3PBDB
?ccGLBindTexture2D@cocos2d@@YAXI@Z
?ccGLBindTexture2DN@cocos2d@@YAXII@Z
?ccGLBindVAO@cocos2d@@YAXI@Z
?ccGLBlendFunc@cocos2d@@YAXII@Z
?ccGLBlendResetToCache@cocos2d@@YAXXZ
?ccGLDeleteProgram@cocos2d@@YAXI@Z
?ccGLDeleteTexture@cocos2d@@YAXI@Z
?ccGLDeleteTextureN@cocos2d@@YAXII@Z
?ccGLEnable@cocos2d@@YAXW4ccGLServerState@1@@Z
?ccGLEnableVertexAttribs@cocos2d@@YAXI@Z
?ccGLInvalidateStateCache@cocos2d@@YAXXZ
?ccGLUseProgram@cocos2d@@YAXI@Z
?ccInflateCCZFile@ZipUtils@cocos2d@@SAHPBDPAPAE@Z
?ccInflateGZipFile@ZipUtils@cocos2d@@SAHPBDPAPAE@Z
?ccInflateMemory@ZipUtils@cocos2d@@SAHPAEIPAPAE@Z
?ccInflateMemoryWithHint@ZipUtils@cocos2d@@CAHPAEIPAPAEPAII@Z
?ccInflateMemoryWithHint@ZipUtils@cocos2d@@SAHPAEIPAPAEI@Z
?ccPointSize@cocos2d@@YAXM@Z
?ccPositionColorLengthTexture_frag@cocos2d@@3PBDB
?ccPositionColorLengthTexture_vert@cocos2d@@3PBDB
?ccPositionColor_frag@cocos2d@@3PBDB
?ccPositionColor_vert@cocos2d@@3PBDB
?ccPositionTextureA8Color_frag@cocos2d@@3PBDB
?ccPositionTextureA8Color_vert@cocos2d@@3PBDB
?ccPositionTextureColorAlphaTest_frag@cocos2d@@3PBDB
?ccPositionTextureColor_frag@cocos2d@@3PBDB
?ccPositionTextureColor_vert@cocos2d@@3PBDB
?ccPositionTexture_frag@cocos2d@@3PBDB
?ccPositionTexture_uColor_frag@cocos2d@@3PBDB
?ccPositionTexture_uColor_vert@cocos2d@@3PBDB
?ccPositionTexture_vert@cocos2d@@3PBDB
?ccPosition_uColor_frag@cocos2d@@3PBDB
?ccPosition_uColor_vert@cocos2d@@3PBDB
?ccSetProjectionMatrixDirty@cocos2d@@YAXXZ
?ccSetPvrEncryptionKey@ZipUtils@cocos2d@@SAXIIII@Z
?ccSetPvrEncryptionKeyPart@ZipUtils@cocos2d@@SAXHI@Z
?ccTouchBegan@CCLayer@cocos2d@@UAE_NPAVCCTouch@2@PAVCCEvent@2@@Z
?ccTouchBegan@CCMenu@cocos2d@@UAE_NPAVCCTouch@2@PAVCCEvent@2@@Z
?ccTouchBegan@CCTargetedTouchDelegate@cocos2d@@UAE_NPAVCCTouch@2@PAVCCEvent@2@@Z
?ccTouchBegan@CCTouchDelegate@cocos2d@@UAE_NPAVCCTouch@2@PAVCCEvent@2@@Z
?ccTouchCancelled@CCLayer@cocos2d@@UAEXPAVCCTouch@2@PAVCCEvent@2@@Z
?ccTouchCancelled@CCMenu@cocos2d@@UAEXPAVCCTouch@2@PAVCCEvent@2@@Z
?ccTouchCancelled@CCTargetedTouchDelegate@cocos2d@@UAEXPAVCCTouch@2@PAVCCEvent@2@@Z
?ccTouchCancelled@CCTouchDelegate@cocos2d@@UAEXPAVCCTouch@2@PAVCCEvent@2@@Z
?ccTouchEnded@CCLayer@cocos2d@@UAEXPAVCCTouch@2@PAVCCEvent@2@@Z
?ccTouchEnded@CCMenu@cocos2d@@UAEXPAVCCTouch@2@PAVCCEvent@2@@Z
?ccTouchEnded@CCTargetedTouchDelegate@cocos2d@@UAEXPAVCCTouch@2@PAVCCEvent@2@@Z
?ccTouchEnded@CCTouchDelegate@cocos2d@@UAEXPAVCCTouch@2@PAVCCEvent@2@@Z
?ccTouchMoved@CCLayer@cocos2d@@UAEXPAVCCTouch@2@PAVCCEvent@2@@Z
?ccTouchMoved@CCMenu@cocos2d@@UAEXPAVCCTouch@2@PAVCCEvent@2@@Z
?ccTouchMoved@CCTargetedTouchDelegate@cocos2d@@UAEXPAVCCTouch@2@PAVCCEvent@2@@Z
?ccTouchMoved@CCTouchDelegate@cocos2d@@UAEXPAVCCTouch@2@PAVCCEvent@2@@Z
?ccTouchesBegan@CCLayer@cocos2d@@UAEXPAVCCSet@2@PAVCCEvent@2@@Z
?ccTouchesBegan@CCStandardTouchDelegate@cocos2d@@UAEXPAVCCSet@2@PAVCCEvent@2@@Z
?ccTouchesBegan@CCTouchDelegate@cocos2d@@UAEXPAVCCSet@2@PAVCCEvent@2@@Z
?ccTouchesCancelled@CCLayer@cocos2d@@UAEXPAVCCSet@2@PAVCCEvent@2@@Z
?ccTouchesCancelled@CCStandardTouchDelegate@cocos2d@@UAEXPAVCCSet@2@PAVCCEvent@2@@Z
?ccTouchesCancelled@CCTouchDelegate@cocos2d@@UAEXPAVCCSet@2@PAVCCEvent@2@@Z
?ccTouchesEnded@CCLayer@cocos2d@@UAEXPAVCCSet@2@PAVCCEvent@2@@Z
?ccTouchesEnded@CCStandardTouchDelegate@cocos2d@@UAEXPAVCCSet@2@PAVCCEvent@2@@Z
?ccTouchesEnded@CCTouchDelegate@cocos2d@@UAEXPAVCCSet@2@PAVCCEvent@2@@Z
?ccTouchesMoved@CCLayer@cocos2d@@UAEXPAVCCSet@2@PAVCCEvent@2@@Z
?ccTouchesMoved@CCStandardTouchDelegate@cocos2d@@UAEXPAVCCSet@2@PAVCCEvent@2@@Z
?ccTouchesMoved@CCTouchDelegate@cocos2d@@UAEXPAVCCSet@2@PAVCCEvent@2@@Z
?ccVertexLineIntersect@cocos2d@@YA_NMMMMMMMMPAM@Z
?ccVertexLineToPolygon@cocos2d@@YAXPAVCCPoint@1@MPAU_ccVertex2F@1@II@Z
?cc_assert_script_compatible@@YA_NPBD@Z
?cc_utf16_to_utf8@cocos2d@@YAPADPBGPAH@Z
?cc_utf16_vec_from_utf16_str@cocos2d@@YA?AV?$vector@GV?$allocator@G@std@@@std@@PBG@Z
?cc_utf8_find_last_not_char@cocos2d@@YAIABV?$vector@GV?$allocator@G@std@@@std@@G@Z
?cc_utf8_strlen@cocos2d@@YAJPBD@Z
?cc_utf8_to_utf16@cocos2d@@YAPAGPBDPAH@Z
?cc_utf8_trim_ws@cocos2d@@YAXPAV?$vector@GV?$allocator@G@std@@@std@@@Z
?cc_wcslen@cocos2d@@YAHPBG@Z
?ccpAngle@cocos2d@@YAMABVCCPoint@1@0@Z
?ccpAngleSigned@cocos2d@@YAMABVCCPoint@1@0@Z
?ccpClamp@cocos2d@@YA?AVCCPoint@1@ABV21@00@Z
?ccpCompMult@cocos2d@@YA?AVCCPoint@1@ABV21@0@Z
?ccpCompOp@cocos2d@@YA?AVCCPoint@1@ABV21@P6AMM@Z@Z
?ccpDistance@cocos2d@@YAMABVCCPoint@1@0@Z
?ccpForAngle@cocos2d@@YA?AVCCPoint@1@M@Z
?ccpFromSize@cocos2d@@YA?AVCCPoint@1@ABVCCSize@1@@Z
?ccpFuzzyEqual@cocos2d@@YA_NABVCCPoint@1@0M@Z
?ccpIntersectPoint@cocos2d@@YA?AVCCPoint@1@ABV21@000@Z
?ccpLength@cocos2d@@YAMABVCCPoint@1@@Z
?ccpLerp@cocos2d@@YA?AVCCPoint@1@ABV21@0M@Z
?ccpLineIntersect@cocos2d@@YA_NABVCCPoint@1@000PAM1@Z
?ccpNormalize@cocos2d@@YA?AVCCPoint@1@ABV21@@Z
?ccpRotateByAngle@cocos2d@@YA?AVCCPoint@1@ABV21@0M@Z
?ccpSegmentIntersect@cocos2d@@YA_NABVCCPoint@1@000@Z
?ccpToAngle@cocos2d@@YAMABVCCPoint@1@@Z
?centerWindow@CCEGLView@cocos2d@@QAEXXZ
?changeHeight@CCLayerColor@cocos2d@@QAEXM@Z
?changeWidth@CCLayerColor@cocos2d@@QAEXM@Z
?changeWidthAndHeight@CCLayerColor@cocos2d@@QAEXMM@Z
?charForKey@CCDictionary@cocos2d@@QAEPBDABV?$basic_string@DU?$char_traits@D@std@@V?$allocator@D@2@@std@@@Z
?check@?$CharTraits@_W@internal@fmt@@SAPB_WPB_W@Z
?checkCompatibility@DS_Dictionary@@QAEXXZ
?checkErrorGL@CCEGLView@cocos2d@@QAEXPBD@Z
?checkForGLExtension@CCConfiguration@cocos2d@@QBE_NABV?$basic_string@DU?$char_traits@D@std@@V?$allocator@D@2@@std@@@Z
?checkSceneReference@CCDirector@cocos2d@@QAEXXZ
?childrenAlloc@CCNode@cocos2d@@AAEXXZ
?clampf@cocos2d@@YAMMMM@Z
?cleanStringWhiteSpace@DS_Dictionary@@AAE?AV?$basic_string@DU?$char_traits@D@std@@V?$allocator@D@2@@std@@ABV23@@Z
?cleanup@CCNode@cocos2d@@UAEXXZ
?cleanup@CCTransitionScene@cocos2d@@UAEXXZ
?clear@CCAutoreleasePool@cocos2d@@QAEXXZ
?clear@CCDrawNode@cocos2d@@QAEXXZ
?clear@CCPrettyPrinter@cocos2d@@UAEXXZ
?clear@CCRenderTexture@cocos2d@@QAEXMMMM@Z
?clearCache@CCContentManager@@QAEXXZ
?clearDepth@CCRenderTexture@cocos2d@@QAEXM@Z
?clearStencil@CCRenderTexture@cocos2d@@QAEXH@Z
?cocos2dVersion@cocos2d@@YAPBDXZ
?compare@CCString@cocos2d@@QBEHPBD@Z
?compileShader@CCGLProgram@cocos2d@@AAE_NPAIIPBD@Z
?compressString@ZipUtils@cocos2d@@SA?AV?$basic_string@DU?$char_traits@D@std@@V?$allocator@D@2@@std@@V34@_NH@Z
?containsObject@CCArray@cocos2d@@QBE_NPAVCCObject@2@@Z
?containsObject@CCSet@cocos2d@@QAE_NPAVCCObject@2@@Z
?containsPoint@CCRect@cocos2d@@QBE_NABVCCPoint@2@@Z
?convert@?$CharTraits@D@internal@fmt@@SA?AU?$StringValue@D@23@U?$StringValue@_W@23@@Z
?convert@?$CharTraits@D@internal@fmt@@SADD@Z
?convert@?$CharTraits@_W@internal@fmt@@SA?AU?$StringValue@_W@23@U423@@Z
?convert@?$CharTraits@_W@internal@fmt@@SA_WD@Z
?convert@?$CharTraits@_W@internal@fmt@@SA_W_W@Z
?convertKeyCode@CCKeyboardDispatcher@cocos2d@@QAE?AW4enumKeyCodes@2@W432@@Z
?convertToGL@CCDirector@cocos2d@@QAE?AVCCPoint@2@ABV32@@Z
?convertToNodeSpace@CCNode@cocos2d@@QAE?AVCCPoint@2@ABV32@@Z
?convertToNodeSpaceAR@CCNode@cocos2d@@QAE?AVCCPoint@2@ABV32@@Z
?convertToUI@CCDirector@cocos2d@@QAE?AVCCPoint@2@ABV32@@Z
?convertToWindowSpace@CCNode@cocos2d@@AAE?AVCCPoint@2@ABV32@@Z
?convertToWorldSpace@CCNode@cocos2d@@QAE?AVCCPoint@2@ABV32@@Z
?convertToWorldSpaceAR@CCNode@cocos2d@@QAE?AVCCPoint@2@ABV32@@Z
?convertTouchToNodeSpace@CCNode@cocos2d@@QAE?AVCCPoint@2@PAVCCTouch@2@@Z
?convertTouchToNodeSpaceAR@CCNode@cocos2d@@QAE?AVCCPoint@2@PAVCCTouch@2@@Z
?copy@CCObject@cocos2d@@QAEPAV12@XZ
?copy@CCSet@cocos2d@@QAEPAV12@XZ
?copyFile@DS_Dictionary@@SAXPBD0@Z
?copyWithZone@CCAction@cocos2d@@UAEPAVCCObject@2@PAVCCZone@2@@Z
?copyWithZone@CCActionEase@cocos2d@@UAEPAVCCObject@2@PAVCCZone@2@@Z
?copyWithZone@CCActionInstant@cocos2d@@UAEPAVCCObject@2@PAVCCZone@2@@Z
?copyWithZone@CCActionInterval@cocos2d@@UAEPAVCCObject@2@PAVCCZone@2@@Z
?copyWithZone@CCAnimate@cocos2d@@UAEPAVCCObject@2@PAVCCZone@2@@Z
?copyWithZone@CCAnimation@cocos2d@@UAEPAVCCObject@2@PAVCCZone@2@@Z
?copyWithZone@CCAnimationFrame@cocos2d@@UAEPAVCCObject@2@PAVCCZone@2@@Z
?copyWithZone@CCArray@cocos2d@@UAEPAVCCObject@2@PAVCCZone@2@@Z
?copyWithZone@CCBezierBy@cocos2d@@UAEPAVCCObject@2@PAVCCZone@2@@Z
?copyWithZone@CCBezierTo@cocos2d@@UAEPAVCCObject@2@PAVCCZone@2@@Z
?copyWithZone@CCBlink@cocos2d@@UAEPAVCCObject@2@PAVCCZone@2@@Z
?copyWithZone@CCCallFunc@cocos2d@@UAEPAVCCObject@2@PAVCCZone@2@@Z
?copyWithZone@CCCallFuncN@cocos2d@@UAEPAVCCObject@2@PAVCCZone@2@@Z
?copyWithZone@CCCallFuncND@cocos2d@@UAEPAVCCObject@2@PAVCCZone@2@@Z
?copyWithZone@CCCallFuncO@cocos2d@@UAEPAVCCObject@2@PAVCCZone@2@@Z
?copyWithZone@CCCardinalSplineTo@cocos2d@@UAEPAV12@PAVCCZone@2@@Z
?copyWithZone@CCCopying@cocos2d@@UAEPAVCCObject@2@PAVCCZone@2@@Z
?copyWithZone@CCDelayTime@cocos2d@@UAEPAVCCObject@2@PAVCCZone@2@@Z
?copyWithZone@CCDictionary@cocos2d@@UAEPAVCCObject@2@PAVCCZone@2@@Z
?copyWithZone@CCEaseBackIn@cocos2d@@UAEPAVCCObject@2@PAVCCZone@2@@Z
?copyWithZone@CCEaseBackInOut@cocos2d@@UAEPAVCCObject@2@PAVCCZone@2@@Z
?copyWithZone@CCEaseBackOut@cocos2d@@UAEPAVCCObject@2@PAVCCZone@2@@Z
?copyWithZone@CCEaseBounce@cocos2d@@UAEPAVCCObject@2@PAVCCZone@2@@Z
?copyWithZone@CCEaseBounceIn@cocos2d@@UAEPAVCCObject@2@PAVCCZone@2@@Z
?copyWithZone@CCEaseBounceInOut@cocos2d@@UAEPAVCCObject@2@PAVCCZone@2@@Z
?copyWithZone@CCEaseBounceOut@cocos2d@@UAEPAVCCObject@2@PAVCCZone@2@@Z
?copyWithZone@CCEaseElastic@cocos2d@@UAEPAVCCObject@2@PAVCCZone@2@@Z
?copyWithZone@CCEaseElasticIn@cocos2d@@UAEPAVCCObject@2@PAVCCZone@2@@Z
?copyWithZone@CCEaseElasticInOut@cocos2d@@UAEPAVCCObject@2@PAVCCZone@2@@Z
?copyWithZone@CCEaseElasticOut@cocos2d@@UAEPAVCCObject@2@PAVCCZone@2@@Z
?copyWithZone@CCEaseExponentialIn@cocos2d@@UAEPAVCCObject@2@PAVCCZone@2@@Z
?copyWithZone@CCEaseExponentialInOut@cocos2d@@UAEPAVCCObject@2@PAVCCZone@2@@Z
?copyWithZone@CCEaseExponentialOut@cocos2d@@UAEPAVCCObject@2@PAVCCZone@2@@Z
?copyWithZone@CCEaseIn@cocos2d@@UAEPAVCCObject@2@PAVCCZone@2@@Z
?copyWithZone@CCEaseInOut@cocos2d@@UAEPAVCCObject@2@PAVCCZone@2@@Z
?copyWithZone@CCEaseOut@cocos2d@@UAEPAVCCObject@2@PAVCCZone@2@@Z
?copyWithZone@CCEaseRateAction@cocos2d@@UAEPAVCCObject@2@PAVCCZone@2@@Z
?copyWithZone@CCEaseSineIn@cocos2d@@UAEPAVCCObject@2@PAVCCZone@2@@Z
?copyWithZone@CCEaseSineInOut@cocos2d@@UAEPAVCCObject@2@PAVCCZone@2@@Z
?copyWithZone@CCEaseSineOut@cocos2d@@UAEPAVCCObject@2@PAVCCZone@2@@Z
?copyWithZone@CCFadeIn@cocos2d@@UAEPAVCCObject@2@PAVCCZone@2@@Z
?copyWithZone@CCFadeOut@cocos2d@@UAEPAVCCObject@2@PAVCCZone@2@@Z
?copyWithZone@CCFadeTo@cocos2d@@UAEPAVCCObject@2@PAVCCZone@2@@Z
?copyWithZone@CCFlipX3D@cocos2d@@UAEPAVCCObject@2@PAVCCZone@2@@Z
?copyWithZone@CCFlipX@cocos2d@@UAEPAVCCObject@2@PAVCCZone@2@@Z
?copyWithZone@CCFlipY3D@cocos2d@@UAEPAVCCObject@2@PAVCCZone@2@@Z
?copyWithZone@CCFlipY@cocos2d@@UAEPAVCCObject@2@PAVCCZone@2@@Z
?copyWithZone@CCFollow@cocos2d@@UAEPAVCCObject@2@PAVCCZone@2@@Z
?copyWithZone@CCGridAction@cocos2d@@UAEPAVCCObject@2@PAVCCZone@2@@Z
?copyWithZone@CCHide@cocos2d@@UAEPAVCCObject@2@PAVCCZone@2@@Z
?copyWithZone@CCJumpBy@cocos2d@@UAEPAVCCObject@2@PAVCCZone@2@@Z
?copyWithZone@CCJumpTiles3D@cocos2d@@UAEPAVCCObject@2@PAVCCZone@2@@Z
?copyWithZone@CCJumpTo@cocos2d@@UAEPAVCCObject@2@PAVCCZone@2@@Z
?copyWithZone@CCLens3D@cocos2d@@UAEPAVCCObject@2@PAVCCZone@2@@Z
?copyWithZone@CCLiquid@cocos2d@@UAEPAVCCObject@2@PAVCCZone@2@@Z
?copyWithZone@CCMoveBy@cocos2d@@UAEPAVCCObject@2@PAVCCZone@2@@Z
?copyWithZone@CCMoveTo@cocos2d@@UAEPAVCCObject@2@PAVCCZone@2@@Z
?copyWithZone@CCOrbitCamera@cocos2d@@UAEPAVCCObject@2@PAVCCZone@2@@Z
?copyWithZone@CCPlace@cocos2d@@UAEPAVCCObject@2@PAVCCZone@2@@Z
?copyWithZone@CCPointArray@cocos2d@@UAEPAVCCObject@2@PAVCCZone@2@@Z
?copyWithZone@CCProgressFromTo@cocos2d@@UAEPAVCCObject@2@PAVCCZone@2@@Z
?copyWithZone@CCProgressTo@cocos2d@@UAEPAVCCObject@2@PAVCCZone@2@@Z
?copyWithZone@CCRemoveSelf@cocos2d@@UAEPAVCCObject@2@PAVCCZone@2@@Z
?copyWithZone@CCRepeat@cocos2d@@UAEPAVCCObject@2@PAVCCZone@2@@Z
?copyWithZone@CCRepeatForever@cocos2d@@UAEPAVCCObject@2@PAVCCZone@2@@Z
?copyWithZone@CCReverseTime@cocos2d@@UAEPAVCCObject@2@PAVCCZone@2@@Z
?copyWithZone@CCRipple3D@cocos2d@@UAEPAVCCObject@2@PAVCCZone@2@@Z
?copyWithZone@CCRotateBy@cocos2d@@UAEPAVCCObject@2@PAVCCZone@2@@Z
?copyWithZone@CCRotateTo@cocos2d@@UAEPAVCCObject@2@PAVCCZone@2@@Z
?copyWithZone@CCScaleBy@cocos2d@@UAEPAVCCObject@2@PAVCCZone@2@@Z
?copyWithZone@CCScaleTo@cocos2d@@UAEPAVCCObject@2@PAVCCZone@2@@Z
?copyWithZone@CCSequence@cocos2d@@UAEPAVCCObject@2@PAVCCZone@2@@Z
?copyWithZone@CCShaky3D@cocos2d@@UAEPAVCCObject@2@PAVCCZone@2@@Z
?copyWithZone@CCShakyTiles3D@cocos2d@@UAEPAVCCObject@2@PAVCCZone@2@@Z
?copyWithZone@CCShatteredTiles3D@cocos2d@@UAEPAVCCObject@2@PAVCCZone@2@@Z
?copyWithZone@CCShow@cocos2d@@UAEPAVCCObject@2@PAVCCZone@2@@Z
?copyWithZone@CCShuffleTiles@cocos2d@@UAEPAVCCObject@2@PAVCCZone@2@@Z
?copyWithZone@CCSkewTo@cocos2d@@UAEPAVCCObject@2@PAVCCZone@2@@Z
?copyWithZone@CCSpawn@cocos2d@@UAEPAVCCObject@2@PAVCCZone@2@@Z
?copyWithZone@CCSpeed@cocos2d@@UAEPAVCCObject@2@PAVCCZone@2@@Z
?copyWithZone@CCSplitCols@cocos2d@@UAEPAVCCObject@2@PAVCCZone@2@@Z
?copyWithZone@CCSplitRows@cocos2d@@UAEPAVCCObject@2@PAVCCZone@2@@Z
?copyWithZone@CCSpriteFrame@cocos2d@@UAEPAVCCObject@2@PAVCCZone@2@@Z
?copyWithZone@CCString@cocos2d@@UAEPAVCCObject@2@PAVCCZone@2@@Z
?copyWithZone@CCTargetedAction@cocos2d@@UAEPAVCCObject@2@PAVCCZone@2@@Z
?copyWithZone@CCTintBy@cocos2d@@UAEPAVCCObject@2@PAVCCZone@2@@Z
?copyWithZone@CCTintTo@cocos2d@@UAEPAVCCObject@2@PAVCCZone@2@@Z
?copyWithZone@CCToggleVisibility@cocos2d@@UAEPAVCCObject@2@PAVCCZone@2@@Z
?copyWithZone@CCTurnOffTiles@cocos2d@@UAEPAVCCObject@2@PAVCCZone@2@@Z
?copyWithZone@CCTwirl@cocos2d@@UAEPAVCCObject@2@PAVCCZone@2@@Z
?copyWithZone@CCWaves3D@cocos2d@@UAEPAVCCObject@2@PAVCCZone@2@@Z
?copyWithZone@CCWaves@cocos2d@@UAEPAVCCObject@2@PAVCCZone@2@@Z
?copyWithZone@CCWavesTiles3D@cocos2d@@UAEPAVCCObject@2@PAVCCZone@2@@Z
?count@CCArray@cocos2d@@QBEIXZ
?count@CCDictionary@cocos2d@@QAEIXZ
?count@CCPointArray@cocos2d@@QAEIXZ
?count@CCSet@cocos2d@@QAEHXZ
?create@CCAccelAmplitude@cocos2d@@SAPAV12@PAVCCAction@2@M@Z
?create@CCAccelDeccelAmplitude@cocos2d@@SAPAV12@PAVCCAction@2@M@Z
?create@CCAction@cocos2d@@SAPAV12@XZ
?create@CCActionEase@cocos2d@@SAPAV12@PAVCCActionInterval@2@@Z
?create@CCActionInterval@cocos2d@@SAPAV12@M@Z
?create@CCActionTween@cocos2d@@SAPAV12@MPBDMM@Z
?create@CCAnimate@cocos2d@@SAPAV12@PAVCCAnimation@2@@Z
?create@CCAnimation@cocos2d@@SAPAV12@PAVCCArray@2@M@Z
?create@CCAnimation@cocos2d@@SAPAV12@PAVCCArray@2@MI@Z
?create@CCAnimation@cocos2d@@SAPAV12@XZ
?create@CCArray@cocos2d@@SAPAV12@PAVCCObject@2@ZZ
?create@CCArray@cocos2d@@SAPAV12@XZ
?create@CCAtlasNode@cocos2d@@SAPAV12@PBDIII@Z
?create@CCBMFontConfiguration@cocos2d@@SAPAV12@PBD@Z
?create@CCBezierBy@cocos2d@@SAPAV12@MABU_ccBezierConfig@2@@Z
?create@CCBezierTo@cocos2d@@SAPAV12@MABU_ccBezierConfig@2@@Z
?create@CCBlink@cocos2d@@SAPAV12@MI@Z
?create@CCBool@cocos2d@@SAPAV12@_N@Z
?create@CCCallFunc@cocos2d@@SAPAV12@H@Z
?create@CCCallFunc@cocos2d@@SAPAV12@PAVCCObject@2@P832@AEXXZ@Z
?create@CCCallFuncN@cocos2d@@SAPAV12@H@Z
?create@CCCallFuncN@cocos2d@@SAPAV12@PAVCCObject@2@P832@AEXPAVCCNode@2@@Z@Z
?create@CCCallFuncND@cocos2d@@SAPAV12@PAVCCObject@2@P832@AEXPAVCCNode@2@PAX@Z2@Z
?create@CCCallFuncO@cocos2d@@SAPAV12@PAVCCObject@2@P832@AEX0@Z0@Z
?create@CCCardinalSplineBy@cocos2d@@SAPAV12@MPAVCCPointArray@2@M@Z
?create@CCCardinalSplineTo@cocos2d@@SAPAV12@MPAVCCPointArray@2@M@Z
?create@CCCatmullRomBy@cocos2d@@SAPAV12@MPAVCCPointArray@2@@Z
?create@CCCatmullRomTo@cocos2d@@SAPAV12@MPAVCCPointArray@2@@Z
?create@CCClippingNode@cocos2d@@SAPAV12@PAVCCNode@2@@Z
?create@CCClippingNode@cocos2d@@SAPAV12@XZ
?create@CCComponent@cocos2d@@SAPAV12@XZ
?create@CCDeccelAmplitude@cocos2d@@SAPAV12@PAVCCAction@2@M@Z
?create@CCDelayTime@cocos2d@@SAPAV12@M@Z
?create@CCDictionary@cocos2d@@SAPAV12@XZ
?create@CCDouble@cocos2d@@SAPAV12@N@Z
?create@CCDrawNode@cocos2d@@SAPAV12@XZ
?create@CCEGLView@cocos2d@@SAPAV12@ABV?$basic_string@DU?$char_traits@D@std@@V?$allocator@D@2@@std@@@Z
?create@CCEaseBackIn@cocos2d@@SAPAV12@PAVCCActionInterval@2@@Z
?create@CCEaseBackInOut@cocos2d@@SAPAV12@PAVCCActionInterval@2@@Z
?create@CCEaseBackOut@cocos2d@@SAPAV12@PAVCCActionInterval@2@@Z
?create@CCEaseBounce@cocos2d@@SAPAV12@PAVCCActionInterval@2@@Z
?create@CCEaseBounceIn@cocos2d@@SAPAV12@PAVCCActionInterval@2@@Z
?create@CCEaseBounceInOut@cocos2d@@SAPAV12@PAVCCActionInterval@2@@Z
?create@CCEaseBounceOut@cocos2d@@SAPAV12@PAVCCActionInterval@2@@Z
?create@CCEaseElastic@cocos2d@@SAPAV12@PAVCCActionInterval@2@@Z
?create@CCEaseElastic@cocos2d@@SAPAV12@PAVCCActionInterval@2@M@Z
?create@CCEaseElasticIn@cocos2d@@SAPAV12@PAVCCActionInterval@2@@Z
?create@CCEaseElasticIn@cocos2d@@SAPAV12@PAVCCActionInterval@2@M@Z
?create@CCEaseElasticInOut@cocos2d@@SAPAV12@PAVCCActionInterval@2@@Z
?create@CCEaseElasticInOut@cocos2d@@SAPAV12@PAVCCActionInterval@2@M@Z
?create@CCEaseElasticOut@cocos2d@@SAPAV12@PAVCCActionInterval@2@@Z
?create@CCEaseElasticOut@cocos2d@@SAPAV12@PAVCCActionInterval@2@M@Z
?create@CCEaseExponentialIn@cocos2d@@SAPAV12@PAVCCActionInterval@2@@Z
?create@CCEaseExponentialInOut@cocos2d@@SAPAV12@PAVCCActionInterval@2@@Z
?create@CCEaseExponentialOut@cocos2d@@SAPAV12@PAVCCActionInterval@2@@Z
?create@CCEaseIn@cocos2d@@SAPAV12@PAVCCActionInterval@2@M@Z
?create@CCEaseInOut@cocos2d@@SAPAV12@PAVCCActionInterval@2@M@Z
?create@CCEaseOut@cocos2d@@SAPAV12@PAVCCActionInterval@2@M@Z
?create@CCEaseRateAction@cocos2d@@SAPAV12@PAVCCActionInterval@2@M@Z
?create@CCEaseSineIn@cocos2d@@SAPAV12@PAVCCActionInterval@2@@Z
?create@CCEaseSineInOut@cocos2d@@SAPAV12@PAVCCActionInterval@2@@Z
?create@CCEaseSineOut@cocos2d@@SAPAV12@PAVCCActionInterval@2@@Z
?create@CCFadeIn@cocos2d@@SAPAV12@M@Z
?create@CCFadeOut@cocos2d@@SAPAV12@M@Z
?create@CCFadeOutBLTiles@cocos2d@@SAPAV12@MABVCCSize@2@@Z
?create@CCFadeOutDownTiles@cocos2d@@SAPAV12@MABVCCSize@2@@Z
?create@CCFadeOutTRTiles@cocos2d@@SAPAV12@MABVCCSize@2@@Z
?create@CCFadeOutUpTiles@cocos2d@@SAPAV12@MABVCCSize@2@@Z
?create@CCFadeTo@cocos2d@@SAPAV12@ME@Z
?create@CCFlipX3D@cocos2d@@SAPAV12@M@Z
?create@CCFlipX@cocos2d@@SAPAV12@_N@Z
?create@CCFlipY3D@cocos2d@@SAPAV12@M@Z
?create@CCFlipY@cocos2d@@SAPAV12@_N@Z
?create@CCFloat@cocos2d@@SAPAV12@M@Z
?create@CCFollow@cocos2d@@SAPAV12@PAVCCNode@2@ABVCCRect@2@@Z
?create@CCGrid3D@cocos2d@@SAPAV12@ABVCCSize@2@@Z
?create@CCGrid3D@cocos2d@@SAPAV12@ABVCCSize@2@PAVCCTexture2D@2@_N@Z
?create@CCGridAction@cocos2d@@SAPAV12@MABVCCSize@2@@Z
?create@CCGridBase@cocos2d@@SAPAV12@ABVCCSize@2@@Z
?create@CCGridBase@cocos2d@@SAPAV12@ABVCCSize@2@PAVCCTexture2D@2@_N@Z
?create@CCHide@cocos2d@@SAPAV12@XZ
?create@CCInteger@cocos2d@@SAPAV12@H@Z
?create@CCJumpBy@cocos2d@@SAPAV12@MABVCCPoint@2@MI@Z
?create@CCJumpTiles3D@cocos2d@@SAPAV12@MABVCCSize@2@IM@Z
?create@CCJumpTo@cocos2d@@SAPAV12@MABVCCPoint@2@MH@Z
?create@CCLabelAtlas@cocos2d@@SAPAV12@PBD0@Z
?create@CCLabelAtlas@cocos2d@@SAPAV12@PBD0III@Z
?create@CCLabelBMFont@cocos2d@@SAPAV12@PBD0@Z
?create@CCLabelBMFont@cocos2d@@SAPAV12@PBD0M@Z
?create@CCLabelBMFont@cocos2d@@SAPAV12@PBD0MW4CCTextAlignment@2@@Z
?create@CCLabelBMFont@cocos2d@@SAPAV12@PBD0MW4CCTextAlignment@2@VCCPoint@2@@Z
?create@CCLabelBMFont@cocos2d@@SAPAV12@XZ
?create@CCLabelTTF@cocos2d@@SAPAV12@PBD0M@Z
?create@CCLabelTTF@cocos2d@@SAPAV12@PBD0MABVCCSize@2@W4CCTextAlignment@2@@Z
?create@CCLabelTTF@cocos2d@@SAPAV12@PBD0MABVCCSize@2@W4CCTextAlignment@2@W4CCVerticalTextAlignment@2@@Z
?create@CCLabelTTF@cocos2d@@SAPAV12@XZ
?create@CCLayer@cocos2d@@SAPAV12@XZ
?create@CCLayerColor@cocos2d@@SAPAV12@ABU_ccColor4B@2@@Z
?create@CCLayerColor@cocos2d@@SAPAV12@ABU_ccColor4B@2@MM@Z
?create@CCLayerColor@cocos2d@@SAPAV12@XZ
?create@CCLayerGradient@cocos2d@@SAPAV12@ABU_ccColor4B@2@0@Z
?create@CCLayerGradient@cocos2d@@SAPAV12@ABU_ccColor4B@2@0ABVCCPoint@2@@Z
?create@CCLayerGradient@cocos2d@@SAPAV12@XZ
?create@CCLayerMultiplex@cocos2d@@SAPAV12@PAVCCLayer@2@ZZ
?create@CCLayerMultiplex@cocos2d@@SAPAV12@XZ
?create@CCLayerRGBA@cocos2d@@SAPAV12@XZ
?create@CCLens3D@cocos2d@@SAPAV12@MABVCCSize@2@ABVCCPoint@2@M@Z
?create@CCLiquid@cocos2d@@SAPAV12@MABVCCSize@2@IM@Z
?create@CCMenu@cocos2d@@SAPAV12@PAVCCMenuItem@2@ZZ
?create@CCMenu@cocos2d@@SAPAV12@XZ
?create@CCMenuItem@cocos2d@@SAPAV12@PAVCCObject@2@P832@AEX0@Z@Z
?create@CCMenuItem@cocos2d@@SAPAV12@XZ
?create@CCMenuItemAtlasFont@cocos2d@@SAPAV12@PBD0HHD@Z
?create@CCMenuItemAtlasFont@cocos2d@@SAPAV12@PBD0HHDPAVCCObject@2@P832@AEX1@Z@Z
?create@CCMenuItemFont@cocos2d@@SAPAV12@PBD@Z
?create@CCMenuItemFont@cocos2d@@SAPAV12@PBDPAVCCObject@2@P832@AEX1@Z@Z
?create@CCMenuItemImage@cocos2d@@SAPAV12@PBD00@Z
?create@CCMenuItemImage@cocos2d@@SAPAV12@PBD00PAVCCObject@2@P832@AEX1@Z@Z
?create@CCMenuItemImage@cocos2d@@SAPAV12@PBD0@Z
?create@CCMenuItemImage@cocos2d@@SAPAV12@PBD0PAVCCObject@2@P832@AEX1@Z@Z
?create@CCMenuItemImage@cocos2d@@SAPAV12@XZ
?create@CCMenuItemLabel@cocos2d@@SAPAV12@PAVCCNode@2@@Z
?create@CCMenuItemLabel@cocos2d@@SAPAV12@PAVCCNode@2@PAVCCObject@2@P842@AEX1@Z@Z
?create@CCMenuItemSprite@cocos2d@@SAPAV12@PAVCCNode@2@00@Z
?create@CCMenuItemSprite@cocos2d@@SAPAV12@PAVCCNode@2@00PAVCCObject@2@P842@AEX1@Z@Z
?create@CCMenuItemSprite@cocos2d@@SAPAV12@PAVCCNode@2@0PAVCCObject@2@P842@AEX1@Z@Z
?create@CCMenuItemToggle@cocos2d@@SAPAV12@PAVCCMenuItem@2@@Z
?create@CCMenuItemToggle@cocos2d@@SAPAV12@XZ
?create@CCMotionStreak@cocos2d@@SAPAV12@MMMABU_ccColor3B@2@PAVCCTexture2D@2@@Z
?create@CCMotionStreak@cocos2d@@SAPAV12@MMMABU_ccColor3B@2@PBD@Z
?create@CCMoveBy@cocos2d@@SAPAV12@MABVCCPoint@2@@Z
?create@CCMoveTo@cocos2d@@SAPAV12@MABVCCPoint@2@@Z
?create@CCNode@cocos2d@@SAPAV12@XZ
?create@CCNodeRGBA@cocos2d@@SAPAV12@XZ
?create@CCOrbitCamera@cocos2d@@SAPAV12@MMMMMMM@Z
?create@CCPageTurn3D@cocos2d@@SAPAV12@MABVCCSize@2@@Z
?create@CCParallaxNode@cocos2d@@SAPAV12@XZ
?create@CCParticleBatchNode@cocos2d@@SAPAV12@PBDI@Z
?create@CCParticleExplosion@cocos2d@@SAPAV12@XZ
?create@CCParticleFire@cocos2d@@SAPAV12@XZ
?create@CCParticleFireworks@cocos2d@@SAPAV12@XZ
?create@CCParticleFlower@cocos2d@@SAPAV12@XZ
?create@CCParticleGalaxy@cocos2d@@SAPAV12@XZ
?create@CCParticleMeteor@cocos2d@@SAPAV12@XZ
?create@CCParticleRain@cocos2d@@SAPAV12@XZ
?create@CCParticleSmoke@cocos2d@@SAPAV12@XZ
?create@CCParticleSnow@cocos2d@@SAPAV12@XZ
?create@CCParticleSpiral@cocos2d@@SAPAV12@XZ
?create@CCParticleSun@cocos2d@@SAPAV12@XZ
?create@CCParticleSystem@cocos2d@@SAPAV12@PBD@Z
?create@CCParticleSystemQuad@cocos2d@@SAPAV12@PBD@Z
?create@CCParticleSystemQuad@cocos2d@@SAPAV12@XZ
?create@CCPlace@cocos2d@@SAPAV12@ABVCCPoint@2@@Z
?create@CCPointArray@cocos2d@@SAPAV12@I@Z
?create@CCProgressFromTo@cocos2d@@SAPAV12@MMM@Z
?create@CCProgressTimer@cocos2d@@SAPAV12@PAVCCSprite@2@@Z
?create@CCProgressTo@cocos2d@@SAPAV12@MM@Z
?create@CCRemoveSelf@cocos2d@@SAPAV12@_N@Z
?create@CCRenderTexture@cocos2d@@SAPAV12@HH@Z
?create@CCRenderTexture@cocos2d@@SAPAV12@HHW4CCTexture2DPixelFormat@2@@Z
?create@CCRenderTexture@cocos2d@@SAPAV12@HHW4CCTexture2DPixelFormat@2@I@Z
?create@CCRepeat@cocos2d@@SAPAV12@PAVCCFiniteTimeAction@2@I@Z
?create@CCRepeatForever@cocos2d@@SAPAV12@PAVCCActionInterval@2@@Z
?create@CCReuseGrid@cocos2d@@SAPAV12@H@Z
?create@CCReverseTime@cocos2d@@SAPAV12@PAVCCFiniteTimeAction@2@@Z
?create@CCRipple3D@cocos2d@@SAPAV12@MABVCCSize@2@ABVCCPoint@2@MIM@Z
?create@CCRotateBy@cocos2d@@SAPAV12@MM@Z
?create@CCRotateBy@cocos2d@@SAPAV12@MMM@Z
?create@CCRotateTo@cocos2d@@SAPAV12@MM@Z
?create@CCRotateTo@cocos2d@@SAPAV12@MMM@Z
?create@CCScaleBy@cocos2d@@SAPAV12@MM@Z
?create@CCScaleBy@cocos2d@@SAPAV12@MMM@Z
?create@CCScaleTo@cocos2d@@SAPAV12@MM@Z
?create@CCScaleTo@cocos2d@@SAPAV12@MMM@Z
?create@CCScene@cocos2d@@SAPAV12@XZ
?create@CCSequence@cocos2d@@SAPAV12@PAVCCArray@2@@Z
?create@CCSequence@cocos2d@@SAPAV12@PAVCCFiniteTimeAction@2@ZZ
?create@CCSet@cocos2d@@SAPAV12@XZ
?create@CCShaky3D@cocos2d@@SAPAV12@MABVCCSize@2@H_N@Z
?create@CCShakyTiles3D@cocos2d@@SAPAV12@MABVCCSize@2@H_N@Z
?create@CCShatteredTiles3D@cocos2d@@SAPAV12@MABVCCSize@2@H_N@Z
?create@CCShow@cocos2d@@SAPAV12@XZ
?create@CCShuffleTiles@cocos2d@@SAPAV12@MABVCCSize@2@I@Z
?create@CCSkewBy@cocos2d@@SAPAV12@MMM@Z
?create@CCSkewTo@cocos2d@@SAPAV12@MMM@Z
?create@CCSpawn@cocos2d@@SAPAV12@PAVCCArray@2@@Z
?create@CCSpawn@cocos2d@@SAPAV12@PAVCCFiniteTimeAction@2@ZZ
?create@CCSpeed@cocos2d@@SAPAV12@PAVCCActionInterval@2@M@Z
?create@CCSplitCols@cocos2d@@SAPAV12@MI@Z
?create@CCSplitRows@cocos2d@@SAPAV12@MI@Z
?create@CCSprite@cocos2d@@SAPAV12@PBD@Z
?create@CCSprite@cocos2d@@SAPAV12@PBDABVCCRect@2@@Z
?create@CCSprite@cocos2d@@SAPAV12@XZ
?create@CCSpriteBatchNode@cocos2d@@SAPAV12@PBD@Z
?create@CCSpriteBatchNode@cocos2d@@SAPAV12@PBDI@Z
?create@CCSpriteFrame@cocos2d@@SAPAV12@PBDABVCCRect@2@@Z
?create@CCSpriteFrame@cocos2d@@SAPAV12@PBDABVCCRect@2@_NABVCCPoint@2@ABVCCSize@2@@Z
?create@CCStopGrid@cocos2d@@SAPAV12@XZ
?create@CCString@cocos2d@@SAPAV12@ABV?$basic_string@DU?$char_traits@D@std@@V?$allocator@D@2@@std@@@Z
?create@CCTMXLayer@cocos2d@@SAPAV12@PAVCCTMXTilesetInfo@2@PAVCCTMXLayerInfo@2@PAVCCTMXMapInfo@2@@Z
?create@CCTMXTiledMap@cocos2d@@SAPAV12@PBD@Z
?create@CCTargetedAction@cocos2d@@SAPAV12@PAVCCNode@2@PAVCCFiniteTimeAction@2@@Z
?create@CCTextureAtlas@cocos2d@@SAPAV12@PBDI@Z
?create@CCTileMapAtlas@cocos2d@@SAPAV12@PBD0HH@Z
?create@CCTiledGrid3D@cocos2d@@SAPAV12@ABVCCSize@2@@Z
?create@CCTiledGrid3D@cocos2d@@SAPAV12@ABVCCSize@2@PAVCCTexture2D@2@_N@Z
?create@CCTiledGrid3DAction@cocos2d@@SAPAV12@MABVCCSize@2@@Z
?create@CCTintBy@cocos2d@@SAPAV12@MFFF@Z
?create@CCTintTo@cocos2d@@SAPAV12@MEEE@Z
?create@CCToggleVisibility@cocos2d@@SAPAV12@XZ
?create@CCTransitionCrossFade@cocos2d@@SAPAV12@MPAVCCScene@2@@Z
?create@CCTransitionFade@cocos2d@@SAPAV12@MPAVCCScene@2@@Z
?create@CCTransitionFade@cocos2d@@SAPAV12@MPAVCCScene@2@ABU_ccColor3B@2@@Z
?create@CCTransitionFadeBL@cocos2d@@SAPAV12@MPAVCCScene@2@@Z
?create@CCTransitionFadeDown@cocos2d@@SAPAV12@MPAVCCScene@2@@Z
?create@CCTransitionFadeTR@cocos2d@@SAPAV12@MPAVCCScene@2@@Z
?create@CCTransitionFadeUp@cocos2d@@SAPAV12@MPAVCCScene@2@@Z
?create@CCTransitionFlipAngular@cocos2d@@SAPAV12@MPAVCCScene@2@@Z
?create@CCTransitionFlipAngular@cocos2d@@SAPAV12@MPAVCCScene@2@W4tOrientation@2@@Z
?create@CCTransitionFlipX@cocos2d@@SAPAV12@MPAVCCScene@2@@Z
?create@CCTransitionFlipX@cocos2d@@SAPAV12@MPAVCCScene@2@W4tOrientation@2@@Z
?create@CCTransitionFlipY@cocos2d@@SAPAV12@MPAVCCScene@2@@Z
?create@CCTransitionFlipY@cocos2d@@SAPAV12@MPAVCCScene@2@W4tOrientation@2@@Z
?create@CCTransitionJumpZoom@cocos2d@@SAPAV12@MPAVCCScene@2@@Z
?create@CCTransitionMoveInB@cocos2d@@SAPAV12@MPAVCCScene@2@@Z
?create@CCTransitionMoveInL@cocos2d@@SAPAV12@MPAVCCScene@2@@Z
?create@CCTransitionMoveInR@cocos2d@@SAPAV12@MPAVCCScene@2@@Z
?create@CCTransitionMoveInT@cocos2d@@SAPAV12@MPAVCCScene@2@@Z
?create@CCTransitionPageTurn@cocos2d@@SAPAV12@MPAVCCScene@2@_N@Z
?create@CCTransitionProgress@cocos2d@@SAPAV12@MPAVCCScene@2@@Z
?create@CCTransitionProgressHorizontal@cocos2d@@SAPAV12@MPAVCCScene@2@@Z
?create@CCTransitionProgressInOut@cocos2d@@SAPAV12@MPAVCCScene@2@@Z
?create@CCTransitionProgressOutIn@cocos2d@@SAPAV12@MPAVCCScene@2@@Z
?create@CCTransitionProgressRadialCCW@cocos2d@@SAPAV12@MPAVCCScene@2@@Z
?create@CCTransitionProgressRadialCW@cocos2d@@SAPAV12@MPAVCCScene@2@@Z
?create@CCTransitionProgressVertical@cocos2d@@SAPAV12@MPAVCCScene@2@@Z
?create@CCTransitionRotoZoom@cocos2d@@SAPAV12@MPAVCCScene@2@@Z
?create@CCTransitionScene@cocos2d@@SAPAV12@MPAVCCScene@2@@Z
?create@CCTransitionSceneOriented@cocos2d@@SAPAV12@MPAVCCScene@2@W4tOrientation@2@@Z
?create@CCTransitionShrinkGrow@cocos2d@@SAPAV12@MPAVCCScene@2@@Z
?create@CCTransitionSlideInB@cocos2d@@SAPAV12@MPAVCCScene@2@@Z
?create@CCTransitionSlideInL@cocos2d@@SAPAV12@MPAVCCScene@2@@Z
?create@CCTransitionSlideInR@cocos2d@@SAPAV12@MPAVCCScene@2@@Z
?create@CCTransitionSlideInT@cocos2d@@SAPAV12@MPAVCCScene@2@@Z
?create@CCTransitionSplitCols@cocos2d@@SAPAV12@MPAVCCScene@2@@Z
?create@CCTransitionSplitRows@cocos2d@@SAPAV12@MPAVCCScene@2@@Z
?create@CCTransitionTurnOffTiles@cocos2d@@SAPAV12@MPAVCCScene@2@@Z
?create@CCTransitionZoomFlipAngular@cocos2d@@SAPAV12@MPAVCCScene@2@@Z
?create@CCTransitionZoomFlipAngular@cocos2d@@SAPAV12@MPAVCCScene@2@W4tOrientation@2@@Z
?create@CCTransitionZoomFlipX@cocos2d@@SAPAV12@MPAVCCScene@2@@Z
?create@CCTransitionZoomFlipX@cocos2d@@SAPAV12@MPAVCCScene@2@W4tOrientation@2@@Z
?create@CCTransitionZoomFlipY@cocos2d@@SAPAV12@MPAVCCScene@2@@Z
?create@CCTransitionZoomFlipY@cocos2d@@SAPAV12@MPAVCCScene@2@W4tOrientation@2@@Z
?create@CCTurnOffTiles@cocos2d@@SAPAV12@MABVCCSize@2@@Z
?create@CCTurnOffTiles@cocos2d@@SAPAV12@MABVCCSize@2@I@Z
?create@CCTwirl@cocos2d@@SAPAV12@MABVCCSize@2@VCCPoint@2@IM@Z
?create@CCWaves3D@cocos2d@@SAPAV12@MABVCCSize@2@IM@Z
?create@CCWaves@cocos2d@@SAPAV12@MABVCCSize@2@IM_N1@Z
?create@CCWavesTiles3D@cocos2d@@SAPAV12@MABVCCSize@2@IM@Z
?create@xml_document@pugi@@AAEXXZ
?createAndAddTimerWithName@CCProfiler@cocos2d@@QAEPAVCCProfilingTimer@2@PBD@Z
?createAutoreleasePool@CCThread@cocos2d@@QAEXXZ
?createBatched@CCLabelBMFont@cocos2d@@SAPAV12@PBD0PAVCCArray@2@@Z
?createCCArrayWithContentsOfFile@CCFileUtils@cocos2d@@MAEPAVCCArray@2@ABV?$basic_string@DU?$char_traits@D@std@@V?$allocator@D@2@@std@@@Z
?createCCDictionaryWithContentsOfFile@CCFileUtils@cocos2d@@MAEPAVCCDictionary@2@ABV?$basic_string@DU?$char_traits@D@std@@V?$allocator@D@2@@std@@@Z
?createFontChars@CCLabelBMFont@cocos2d@@QAEXXZ
?createStatsLabel@CCDirector@cocos2d@@IAEXXZ
?createWithArray@CCArray@cocos2d@@SAPAV12@PAV12@@Z
?createWithArray@CCLayerMultiplex@cocos2d@@SAPAV12@PAVCCArray@2@@Z
?createWithArray@CCMenu@cocos2d@@SAPAV12@PAVCCArray@2@@Z
?createWithCapacity@CCArray@cocos2d@@SAPAV12@I@Z
?createWithCoder@CCObject@cocos2d@@SAPAV12@PAVDS_Dictionary@@@Z
?createWithContentsOfFile@CCArray@cocos2d@@SAPAV12@PBD@Z
?createWithContentsOfFile@CCDictionary@cocos2d@@SAPAV12@PBD@Z
?createWithContentsOfFile@CCString@cocos2d@@SAPAV12@PBD@Z
?createWithContentsOfFileThreadSafe@CCArray@cocos2d@@SAPAV12@PBD@Z
?createWithContentsOfFileThreadSafe@CCDictionary@cocos2d@@SAPAV12@PBD@Z
?createWithData@CCString@cocos2d@@SAPAV12@PBEK@Z
?createWithDictionary@CCDictionary@cocos2d@@SAPAV12@PAV12@@Z
?createWithFontDefinition@CCLabelTTF@cocos2d@@SAPAV12@PBDAAU_ccFontDefinition@2@@Z
?createWithFormat@CCString@cocos2d@@SAPAV12@PBDZZ
?createWithFullScreen@CCEGLView@cocos2d@@SAPAV12@ABV?$basic_string@DU?$char_traits@D@std@@V?$allocator@D@2@@std@@@Z
?createWithFullScreen@CCEGLView@cocos2d@@SAPAV12@ABV?$basic_string@DU?$char_traits@D@std@@V?$allocator@D@2@@std@@ABUGLFWvidmode@@PAUGLFWmonitor@@@Z
?createWithItem@CCMenu@cocos2d@@SAPAV12@PAVCCMenuItem@2@@Z
?createWithItems@CCMenu@cocos2d@@SAPAV12@PAVCCMenuItem@2@PAD@Z
?createWithLayer@CCLayerMultiplex@cocos2d@@SAPAV12@PAVCCLayer@2@@Z
?createWithObject@CCArray@cocos2d@@SAPAV12@PAVCCObject@2@@Z
?createWithRect@CCEGLView@cocos2d@@SAPAV12@ABV?$basic_string@DU?$char_traits@D@std@@V?$allocator@D@2@@std@@VCCRect@2@M@Z
?createWithSpriteFrame@CCSprite@cocos2d@@SAPAV12@PAVCCSpriteFrame@2@@Z
?createWithSpriteFrameName@CCSprite@cocos2d@@SAPAV12@PBD@Z
?createWithSpriteFrames@CCAnimation@cocos2d@@SAPAV12@PAVCCArray@2@M@Z
?createWithTarget@CCMenuItemToggle@cocos2d@@SAPAV12@PAVCCObject@2@P832@AEX0@ZPAVCCArray@2@@Z
?createWithTarget@CCMenuItemToggle@cocos2d@@SAPAV12@PAVCCObject@2@P832@AEX0@ZPAVCCMenuItem@2@ZZ
?createWithTexture@CCParticleBatchNode@cocos2d@@SAPAV12@PAVCCTexture2D@2@I@Z
?createWithTexture@CCSprite@cocos2d@@SAPAV12@PAVCCTexture2D@2@@Z
?createWithTexture@CCSprite@cocos2d@@SAPAV12@PAVCCTexture2D@2@ABVCCRect@2@@Z
?createWithTexture@CCSpriteBatchNode@cocos2d@@SAPAV12@PAVCCTexture2D@2@@Z
?createWithTexture@CCSpriteBatchNode@cocos2d@@SAPAV12@PAVCCTexture2D@2@I@Z
?createWithTexture@CCSpriteFrame@cocos2d@@SAPAV12@PAVCCTexture2D@2@ABVCCRect@2@@Z
?createWithTexture@CCSpriteFrame@cocos2d@@SAPAV12@PAVCCTexture2D@2@ABVCCRect@2@_NABVCCPoint@2@ABVCCSize@2@@Z
?createWithTexture@CCTextureAtlas@cocos2d@@SAPAV12@PAVCCTexture2D@2@I@Z
?createWithTotalParticles@CCParticleExplosion@cocos2d@@SAPAV12@I@Z
?createWithTotalParticles@CCParticleFire@cocos2d@@SAPAV12@I@Z
?createWithTotalParticles@CCParticleFireworks@cocos2d@@SAPAV12@I@Z
?createWithTotalParticles@CCParticleFlower@cocos2d@@SAPAV12@I@Z
?createWithTotalParticles@CCParticleGalaxy@cocos2d@@SAPAV12@I@Z
?createWithTotalParticles@CCParticleMeteor@cocos2d@@SAPAV12@I@Z
?createWithTotalParticles@CCParticleRain@cocos2d@@SAPAV12@I@Z
?createWithTotalParticles@CCParticleSmoke@cocos2d@@SAPAV12@I@Z
?createWithTotalParticles@CCParticleSnow@cocos2d@@SAPAV12@I@Z
?createWithTotalParticles@CCParticleSpiral@cocos2d@@SAPAV12@I@Z
?createWithTotalParticles@CCParticleSun@cocos2d@@SAPAV12@I@Z
?createWithTotalParticles@CCParticleSystem@cocos2d@@SAPAV12@I@Z
?createWithTotalParticles@CCParticleSystemQuad@cocos2d@@SAPAV12@I@Z
?createWithTwoActions@CCSequence@cocos2d@@SAPAV12@PAVCCFiniteTimeAction@2@0@Z
?createWithTwoActions@CCSpawn@cocos2d@@SAPAV12@PAVCCFiniteTimeAction@2@0@Z
?createWithVariableList@CCSequence@cocos2d@@SAPAV12@PAVCCFiniteTimeAction@2@PAD@Z
?createWithVariableList@CCSpawn@cocos2d@@SAPAV12@PAVCCFiniteTimeAction@2@PAD@Z
?createWithXML@CCTMXTiledMap@cocos2d@@SAPAV12@PBD0@Z
?createXMLFile@CCUserDefault@cocos2d@@CA_NXZ
?cross@CCPoint@cocos2d@@QBEMABV12@@Z
?data@?$BasicWriter@D@fmt@@QBEPBDXZ
?data@FormatInt@fmt@@QBEPBDXZ
?decodeObjectForKey@DS_Dictionary@@QAEPAVCCObject@cocos2d@@PBD_NH@Z
?decompressString2@ZipUtils@cocos2d@@SA?AV?$basic_string@DU?$char_traits@D@std@@V?$allocator@D@2@@std@@PAE_NHH@Z
?decompressString@ZipUtils@cocos2d@@SA?AV?$basic_string@DU?$char_traits@D@std@@V?$allocator@D@2@@std@@V34@_NH@Z
?decrementForcePrio@CCTouchDispatcher@cocos2d@@QAEXH@Z
?defaultAlphaPixelFormat@CCTexture2D@cocos2d@@SA?AW4CCTexture2DPixelFormat@2@XZ
?deleteBackward@CCIMEDelegate@cocos2d@@MAEXXZ
?deleteBackward@CCTextFieldTTF@cocos2d@@MAEXXZ
?deleteHashElement@CCActionManager@cocos2d@@IAEXPAU_hashElement@2@@Z
?description@CCAction@cocos2d@@QAEPBDXZ
?description@CCBMFontConfiguration@cocos2d@@QAEPBDXZ
?description@CCCamera@cocos2d@@QAEPBDXZ
?description@CCGLProgram@cocos2d@@AAEPBDXZ
?description@CCLabelTTF@cocos2d@@QAEPBDXZ
?description@CCNode@cocos2d@@QAEPBDXZ
?description@CCTexture2D@cocos2d@@QAEPBDXZ
?description@CCTextureAtlas@cocos2d@@QAEPBDXZ
?description@CCTextureCache@cocos2d@@QAEPBDXZ
?destroy@xml_document@pugi@@AAEXXZ
?detachChild@CCNode@cocos2d@@AAEXPAV12@_N@Z
?detachDelegateWithIME@CCIMEDispatcher@cocos2d@@IAE_NPAVCCIMEDelegate@2@@Z
?detachWithIME@CCIMEDelegate@cocos2d@@UAE_NXZ
?detachWithIME@CCTextFieldTTF@cocos2d@@UAE_NXZ
?didAccelerate@CCAccelerometerDelegate@cocos2d@@UAEXPAVCCAcceleration@2@@Z
?didAccelerate@CCLayer@cocos2d@@UAEXPAVCCAcceleration@2@@Z
?didAttachWithIME@CCIMEDelegate@cocos2d@@MAEXXZ
?didDetachWithIME@CCIMEDelegate@cocos2d@@MAEXXZ
?disableParticle@CCParticleBatchNode@cocos2d@@QAEXI@Z
?disableShadow@CCLabelTTF@cocos2d@@QAEX_N@Z
?disableStroke@CCLabelTTF@cocos2d@@QAEX_N@Z
?dispatchDeleteBackward@CCIMEDispatcher@cocos2d@@QAEXXZ
?dispatchInsertText@CCIMEDispatcher@cocos2d@@QAEXPBDH@Z
?dispatchKeyboardDidHide@CCIMEDispatcher@cocos2d@@QAEXAAUCCIMEKeyboardNotificationInfo@2@@Z
?dispatchKeyboardDidShow@CCIMEDispatcher@cocos2d@@QAEXAAUCCIMEKeyboardNotificationInfo@2@@Z
?dispatchKeyboardMSG@CCKeyboardDispatcher@cocos2d@@QAE_NW4enumKeyCodes@2@_N@Z
?dispatchKeyboardWillHide@CCIMEDispatcher@cocos2d@@QAEXAAUCCIMEKeyboardNotificationInfo@2@@Z
?dispatchKeyboardWillHide@CCIMEDispatcher@cocos2d@@QAEXXZ
?dispatchKeyboardWillShow@CCIMEDispatcher@cocos2d@@QAEXAAUCCIMEKeyboardNotificationInfo@2@@Z
?dispatchKeypadMSG@CCKeypadDispatcher@cocos2d@@QAE_NW4ccKeypadMSGType@2@@Z
?dispatchScrollMSG@CCMouseDispatcher@cocos2d@@QAE_NMM@Z
?displayFrame@CCSprite@cocos2d@@UAEPAVCCSpriteFrame@2@XZ
?displayTimers@CCProfiler@cocos2d@@QAEXXZ
?document_element@xml_document@pugi@@QBE?AVxml_node@2@XZ
?dot@CCPoint@cocos2d@@QBEMABV12@@Z
?doubleValue@CCString@cocos2d@@QBENXZ
?draw@CCAtlasNode@cocos2d@@UAEXXZ
?draw@CCDrawNode@cocos2d@@UAEXXZ
?draw@CCLayerColor@cocos2d@@UAEXXZ
?draw@CCMotionStreak@cocos2d@@UAEXXZ
?draw@CCNode@cocos2d@@UAEXXZ
?draw@CCParticleBatchNode@cocos2d@@UAEXXZ
?draw@CCParticleSystemQuad@cocos2d@@UAEXXZ
?draw@CCProgressTimer@cocos2d@@UAEXXZ
?draw@CCRenderTexture@cocos2d@@UAEXXZ
?draw@CCSprite@cocos2d@@UAEXXZ
?draw@CCSpriteBatchNode@cocos2d@@UAEXXZ
?draw@CCTextFieldTTF@cocos2d@@MAEXXZ
?draw@CCTransitionCrossFade@cocos2d@@UAEXXZ
?draw@CCTransitionScene@cocos2d@@UAEXXZ
?drawAtPoint@CCTexture2D@cocos2d@@QAEXABVCCPoint@2@@Z
?drawDot@CCDrawNode@cocos2d@@QAEXABVCCPoint@2@MABU_ccColor4F@2@@Z
?drawInRect@CCTexture2D@cocos2d@@QAEXABVCCRect@2@@Z
?drawNumberOfQuads@CCTextureAtlas@cocos2d@@QAEXI@Z
?drawNumberOfQuads@CCTextureAtlas@cocos2d@@QAEXII@Z
?drawPolygon@CCDrawNode@cocos2d@@QAEXPAVCCPoint@2@IABU_ccColor4F@2@M1@Z
?drawQuads@CCTextureAtlas@cocos2d@@QAEXXZ
?drawScene@CCDirector@cocos2d@@QAEXXZ
?drawSegment@CCDrawNode@cocos2d@@QAEXABVCCPoint@2@0MABU_ccColor4F@2@@Z
?dumpCachedTextureInfo@CCTextureCache@cocos2d@@QAEXXZ
?dumpInfo@CCConfiguration@cocos2d@@QBEXXZ
?easeActionWithAction@CCTransitionFadeTR@cocos2d@@UAEPAVCCActionInterval@2@PAV32@@Z
?easeActionWithAction@CCTransitionMoveInL@cocos2d@@UAEPAVCCActionInterval@2@PAV32@@Z
?easeActionWithAction@CCTransitionShrinkGrow@cocos2d@@UAEPAVCCActionInterval@2@PAV32@@Z
?easeActionWithAction@CCTransitionSlideInL@cocos2d@@UAEPAVCCActionInterval@2@PAV32@@Z
?easeActionWithAction@CCTransitionSplitCols@cocos2d@@UAEPAVCCActionInterval@2@PAV32@@Z
?easeActionWithAction@CCTransitionTurnOffTiles@cocos2d@@UAEPAVCCActionInterval@2@PAV32@@Z
?enableRepeatMode@CCMotionStreak@cocos2d@@QAEXM@Z
?enableRetina@CCEGLView@cocos2d@@QAEX_N@Z
?enableShadow@CCLabelTTF@cocos2d@@QAEXABVCCSize@2@MM_N@Z
?enableStroke@CCLabelTTF@cocos2d@@QAEXABU_ccColor3B@2@M_N@Z
?encodeWithCoder@CCObject@cocos2d@@UAEXPAVDS_Dictionary@@@Z
?encryptDecrypt@ZipUtils@cocos2d@@SA?AV?$basic_string@DU?$char_traits@D@std@@V?$allocator@D@2@@std@@V34@H@Z
?encryptDecryptWKey@ZipUtils@cocos2d@@SA?AV?$basic_string@DU?$char_traits@D@std@@V?$allocator@D@2@@std@@V34@0@Z
?end@CCDirector@cocos2d@@QAEXXZ
?end@CCEGLView@cocos2d@@UAEXXZ
?end@CCRenderTexture@cocos2d@@QAEXXZ
?end@CCSet@cocos2d@@QAE?AV?$_Tree_const_iterator@V?$_Tree_val@U?$_Tree_simple_types@PAVCCObject@cocos2d@@@std@@@std@@@std@@XZ
?endElement@CCSAXParser@cocos2d@@SAXPAXPBE@Z
?endElement@CCTMXMapInfo@cocos2d@@UAEXPAXPBD@Z
?endToLua@CCRenderTexture@cocos2d@@QAEXXZ
?ensureCapacity@CCDrawNode@cocos2d@@AAEXI@Z
?equals@CCPoint@cocos2d@@QBE_NABV12@@Z
?equals@CCRect@cocos2d@@QBE_NABV12@@Z
?equals@CCSize@cocos2d@@QBE_NABV12@@Z
?error_code@SystemError@fmt@@QBEHXZ
?exchangeObject@CCArray@cocos2d@@QAEXPAVCCObject@2@0@Z
?exchangeObjectAtIndex@CCArray@cocos2d@@QAEXII@Z
?excuteScriptTouchHandler@CCLayer@cocos2d@@AAEHHPAVCCSet@2@@Z
?excuteScriptTouchHandler@CCLayer@cocos2d@@AAEHHPAVCCTouch@2@@Z
?execute@CCCallFunc@cocos2d@@UAEXXZ
?execute@CCCallFuncN@cocos2d@@UAEXXZ
?execute@CCCallFuncND@cocos2d@@UAEXXZ
?execute@CCCallFuncO@cocos2d@@UAEXXZ
?executeEventWithArgs@CCScriptEngineProtocol@cocos2d@@UAEHHPAVCCArray@2@@Z
?fastRemoveObject@CCArray@cocos2d@@QAEXPAVCCObject@2@@Z
?fastRemoveObjectAtIndex@CCArray@cocos2d@@QAEXI@Z
?fastRemoveObjectAtIndexNew@CCArray@cocos2d@@QAEXI@Z
?fill@?$TypeSpec@$0A@@fmt@@QBEDXZ
?fill@?$TypeSpec@$0FI@@fmt@@QBEDXZ
?fill@?$TypeSpec@$0GC@@fmt@@QBEDXZ
?fill@?$TypeSpec@$0GP@@fmt@@QBEDXZ
?fill@?$TypeSpec@$0HI@@fmt@@QBEDXZ
?fillWithEmptyQuadsFromIndex@CCTextureAtlas@cocos2d@@QAEXII@Z
?finalize@CCPoolManager@cocos2d@@QAEXXZ
?findHandler@CCTouchDispatcher@cocos2d@@IAEPAVCCTouchHandler@2@PAVCCArray@2@PAVCCTouchDelegate@2@@Z
?findHandler@CCTouchDispatcher@cocos2d@@QAEPAVCCTouchHandler@2@PAVCCTouchDelegate@2@@Z
?finish@CCTransitionScene@cocos2d@@QAEXXZ
?floatValue@CCString@cocos2d@@QBEMXZ
?flush@CCUserDefault@cocos2d@@QAEXXZ
?fontName@CCMenuItemFont@cocos2d@@SAPBDXZ
?fontNameObj@CCMenuItemFont@cocos2d@@QAEPBDXZ
?fontSize@CCMenuItemFont@cocos2d@@SAIXZ
?fontSizeObj@CCMenuItemFont@cocos2d@@QAEIXZ
?forAngle@CCPoint@cocos2d@@SA?AV12@M@Z
?forceAddDelegate@CCKeyboardDispatcher@cocos2d@@QAEXPAVCCKeyboardDelegate@2@@Z
?forceAddDelegate@CCKeypadDispatcher@cocos2d@@QAEXPAVCCKeypadDelegate@2@@Z
?forceAddDelegate@CCMouseDispatcher@cocos2d@@QAEXPAVCCMouseDelegate@2@@Z
?forceAddHandler@CCTouchDispatcher@cocos2d@@IAEXPAVCCTouchHandler@2@PAVCCArray@2@@Z
?forceRemoveAllDelegates@CCTouchDispatcher@cocos2d@@IAEXXZ
?forceRemoveDelegate@CCKeyboardDispatcher@cocos2d@@QAEXPAVCCKeyboardDelegate@2@@Z
?forceRemoveDelegate@CCKeypadDispatcher@cocos2d@@QAEXPAVCCKeypadDelegate@2@@Z
?forceRemoveDelegate@CCMouseDispatcher@cocos2d@@QAEXPAVCCMouseDelegate@2@@Z
?forceRemoveDelegate@CCTouchDispatcher@cocos2d@@IAEXPAVCCTouchDelegate@2@@Z
?format@?$BasicFormatter@D@fmt@@QAEPBDPBDABUArg@internal@2@@Z
?format@?$BasicFormatter@_W@fmt@@QAEPB_WPB_WABUArg@internal@2@@Z
?formatWithTMXFile@CCTMXMapInfo@cocos2d@@SAPAV12@PBD@Z
?formatWithXML@CCTMXMapInfo@cocos2d@@SAPAV12@PBD0@Z
?fragmentShaderLog@CCGLProgram@cocos2d@@QAEPBDXZ
?fullPathForFilename@CCFileUtils@cocos2d@@UAE?AV?$basic_string@DU?$char_traits@D@std@@V?$allocator@D@2@@std@@PBD_N@Z
?fullPathForFilename@CCFileUtilsWin32@cocos2d@@UAE?AV?$basic_string@DU?$char_traits@D@std@@V?$allocator@D@2@@std@@PBD@Z
?fullPathFromRelativeFile@CCFileUtils@cocos2d@@UAEPBDPBD0@Z
?fuzzyEquals@CCPoint@cocos2d@@QBE_NABV12@M@Z
?g_uNumberOfDraws@@3IA
?gameDidSave@CCApplication@cocos2d@@UAEXXZ
?gameDidSave@CCApplicationProtocol@cocos2d@@UAEXXZ
?gatherGPUInfo@CCConfiguration@cocos2d@@QAEXXZ
?generateMipmap@CCTexture2D@cocos2d@@QAEXXZ
?get@CCComponentContainer@cocos2d@@UBEPAVCCComponent@2@PBD@Z
?getAccelerometer@CCDirector@cocos2d@@UAEPAVCCAccelerometer@2@XZ
?getActionByTag@CCActionManager@cocos2d@@QAEPAVCCAction@2@IPAVCCObject@2@@Z
?getActionByTag@CCNode@cocos2d@@QAEPAVCCAction@2@H@Z
?getActionManager@CCDirector@cocos2d@@UAEPAVCCActionManager@2@XZ
?getActionManager@CCNode@cocos2d@@UAEPAVCCActionManager@2@XZ
?getActualDeltaTime@CCDirector@cocos2d@@QBEMXZ
?getAllKeys@DS_Dictionary@@QAE?AV?$vector@V?$basic_string@DU?$char_traits@D@std@@V?$allocator@D@2@@std@@V?$allocator@V?$basic_string@DU?$char_traits@D@std@@V?$allocator@D@2@@std@@@2@@std@@XZ
?getAlphaThreshold@CCClippingNode@cocos2d@@QBEMXZ
?getAltKeyPressed@CCKeyboardDispatcher@cocos2d@@QBE_NXZ
?getAmplitude@CCJumpTiles3D@cocos2d@@QAEMXZ
?getAmplitude@CCLiquid@cocos2d@@QAEMXZ
?getAmplitude@CCRipple3D@cocos2d@@QAEMXZ
?getAmplitude@CCTwirl@cocos2d@@QAEMXZ
?getAmplitude@CCWaves3D@cocos2d@@QAEMXZ
?getAmplitude@CCWaves@cocos2d@@QAEMXZ
?getAmplitude@CCWavesTiles3D@cocos2d@@QAEMXZ
?getAmplitudeRate@CCActionInterval@cocos2d@@QAEMXZ
?getAmplitudeRate@CCJumpTiles3D@cocos2d@@QAEMXZ
?getAmplitudeRate@CCLiquid@cocos2d@@QAEMXZ
?getAmplitudeRate@CCRipple3D@cocos2d@@QAEMXZ
?getAmplitudeRate@CCTwirl@cocos2d@@QAEMXZ
?getAmplitudeRate@CCWaves3D@cocos2d@@QAEMXZ
?getAmplitudeRate@CCWaves@cocos2d@@QAEMXZ
?getAmplitudeRate@CCWavesTiles3D@cocos2d@@QAEMXZ
?getAnchorPoint@CCNode@cocos2d@@UAEABVCCPoint@2@XZ
?getAnchorPointInPoints@CCNode@cocos2d@@UAEABVCCPoint@2@XZ
?getAndroidPath@CCFileUtils@cocos2d@@QBE?AV?$basic_string@DU?$char_traits@D@std@@V?$allocator@D@2@@std@@XZ
?getAngle@CCParticleSystem@cocos2d@@UAEMXZ
?getAngle@CCPoint@cocos2d@@QBEMABV12@@Z
?getAngle@CCPoint@cocos2d@@QBEMXZ
?getAngleVar@CCParticleSystem@cocos2d@@UAEMXZ
?getAnimation@CCAnimate@cocos2d@@QBEPAVCCAnimation@2@XZ
?getAnimationInterval@CCDirector@cocos2d@@QAENXZ
?getArrayForKey@DS_Dictionary@@QAEPAVCCArray@cocos2d@@PBD_N@Z
?getAtlasCapacity@CCSpriteBatchNode@cocos2d@@QAEHXZ
?getAtlasIndex@CCParticleSystem@cocos2d@@QBEIXZ
?getAtlasIndex@CCSprite@cocos2d@@QAEIXZ
?getAtlasName@CCBMFontConfiguration@cocos2d@@QAEPBDXZ
?getBarChangeRate@CCProgressTimer@cocos2d@@QBE?AVCCPoint@2@XZ
?getBatchNode@CCParticleSystem@cocos2d@@UAEPAVCCParticleBatchNode@2@XZ
?getBatchNode@CCSprite@cocos2d@@UAEPAVCCSpriteBatchNode@2@XZ
?getBitsPerComponent@CCImage@cocos2d@@QBEHXZ
?getBlVertexMod@CCSprite@cocos2d@@QBEMXZ
?getBlendFunc@CCAtlasNode@cocos2d@@UAE?AU_ccBlendFunc@2@XZ
?getBlendFunc@CCDrawNode@cocos2d@@QBE?AU_ccBlendFunc@2@XZ
?getBlendFunc@CCLayerColor@cocos2d@@UAE?AU_ccBlendFunc@2@XZ
?getBlendFunc@CCMotionStreak@cocos2d@@UAE?AU_ccBlendFunc@2@XZ
?getBlendFunc@CCParticleBatchNode@cocos2d@@UAE?AU_ccBlendFunc@2@XZ
?getBlendFunc@CCParticleSystem@cocos2d@@UAE?AU_ccBlendFunc@2@XZ
?getBlendFunc@CCSprite@cocos2d@@UAE?AU_ccBlendFunc@2@XZ
?getBlendFunc@CCSpriteBatchNode@cocos2d@@UAE?AU_ccBlendFunc@2@XZ
?getBool@CCConfiguration@cocos2d@@QBE_NPBD_N@Z
?getBoolForKey@CCUserDefault@cocos2d@@QAE_NPBD@Z
?getBoolForKey@CCUserDefault@cocos2d@@QAE_NPBD_N@Z
?getBoolForKey@DS_Dictionary@@QAE_NPBD@Z
?getBrVertexMod@CCSprite@cocos2d@@QBEMXZ
?getCString@CCConfiguration@cocos2d@@QBEPBDPBD0@Z
?getCString@CCString@cocos2d@@QBEPBDXZ
?getCamera@CCNode@cocos2d@@UAEPAVCCCamera@2@XZ
?getCapacity@CCTextureAtlas@cocos2d@@UAEIXZ
?getCenterXYZ@CCCamera@cocos2d@@QAEXPAM00@Z
?getCharCount@CCTextFieldTTF@cocos2d@@QBEHXZ
?getCharacterSet@CCBMFontConfiguration@cocos2d@@QBEPAV?$set@IU?$less@I@std@@V?$allocator@I@2@@std@@XZ
?getChildByTag@CCNode@cocos2d@@UAEPAV12@H@Z
?getChildren@CCNode@cocos2d@@UAEPAVCCArray@2@XZ
?getChildrenCount@CCNode@cocos2d@@UBEIXZ
?getClaimedTouches@CCTargetedTouchHandler@cocos2d@@QAEPAVCCSet@2@XZ
?getClassTypeInfo@CCCallFuncN@cocos2d@@UAEJXZ
?getClassTypeInfo@CCCallFuncND@cocos2d@@UAEJXZ
?getClassTypeInfo@CCCallFuncO@cocos2d@@UAEJXZ
?getClassTypeInfo@CCDirector@cocos2d@@UAEJXZ
?getClassTypeInfo@CCFileUtils@cocos2d@@UAEJXZ
?getClearColor@CCRenderTexture@cocos2d@@QBEABU_ccColor4F@2@XZ
?getClearDepth@CCRenderTexture@cocos2d@@QBEMXZ
?getClearFlags@CCRenderTexture@cocos2d@@QBEIXZ
?getClearStencil@CCRenderTexture@cocos2d@@QBEHXZ
?getColor@CCAtlasNode@cocos2d@@UAEABU_ccColor3B@2@XZ
?getColor@CCLabelBMFont@cocos2d@@UAEABU_ccColor3B@2@XZ
?getColor@CCLayerRGBA@cocos2d@@UAEABU_ccColor3B@2@XZ
?getColor@CCNodeRGBA@cocos2d@@UAEABU_ccColor3B@2@XZ
?getColor@CCProgressTimer@cocos2d@@UBEABU_ccColor3B@2@XZ
?getColorSpaceHolder@CCTextFieldTTF@cocos2d@@UAEABU_ccColor3B@2@XZ
?getCommandKeyPressed@CCKeyboardDispatcher@cocos2d@@QBE_NXZ
?getComponent@CCNode@cocos2d@@QBEPAVCCComponent@2@PBD@Z
?getConfiguration@CCLabelBMFont@cocos2d@@QBEPAVCCBMFontConfiguration@2@XZ
?getContentScaleFactor@CCDirector@cocos2d@@QAEMXZ
?getContentSize@CCNode@cocos2d@@UBEABVCCSize@2@XZ
?getContentSize@CCTexture2D@cocos2d@@UAE?AVCCSize@2@XZ
?getContentSizeInPixels@CCTexture2D@cocos2d@@QAEABVCCSize@2@XZ
?getContentText@CCIMEDelegate@cocos2d@@MAEPBDXZ
?getContentText@CCIMEDispatcher@cocos2d@@QAEPBDXZ
?getContentText@CCTextFieldTTF@cocos2d@@MAEPBDXZ
?getControlKeyPressed@CCKeyboardDispatcher@cocos2d@@QBE_NXZ
?getControlPointAtIndex@CCPointArray@cocos2d@@QAE?AVCCPoint@2@I@Z
?getControlPoints@CCPointArray@cocos2d@@QAEPBV?$vector@PAVCCPoint@cocos2d@@V?$allocator@PAVCCPoint@cocos2d@@@std@@@std@@XZ
?getControllerConnected@CCApplication@cocos2d@@QBE_NXZ
?getCurReleasePool@CCPoolManager@cocos2d@@AAEPAVCCAutoreleasePool@2@XZ
?getCurrentIndex@CCParticleBatchNode@cocos2d@@AAEXPAI0PAVCCNode@2@H@Z
?getCurrentLanguage@CCApplication@cocos2d@@UAE?AW4LanguageType@2@XZ
?getCurrentString@CCTMXMapInfo@cocos2d@@QAEPBDXZ
?getDPI@CCDevice@cocos2d@@SAHXZ
?getData@CCImage@cocos2d@@QAEPAEXZ
?getDataLen@CCImage@cocos2d@@QAEHXZ
?getDecodedObject@ObjectDecoder@@QAEPAVCCObject@cocos2d@@HPAVDS_Dictionary@@@Z
?getDelayPerUnit@CCAnimation@cocos2d@@QBEMXZ
?getDelayUnits@CCAnimationFrame@cocos2d@@QBEMXZ
?getDelegate@CCDirector@cocos2d@@QBEPAVCCDirectorDelegate@2@XZ
?getDelegate@CCKeyboardHandler@cocos2d@@QAEPAVCCKeyboardDelegate@2@XZ
?getDelegate@CCKeypadHandler@cocos2d@@QAEPAVCCKeypadDelegate@2@XZ
?getDelegate@CCMouseHandler@cocos2d@@QAEPAVCCMouseDelegate@2@XZ
?getDelegate@CCTextFieldTTF@cocos2d@@QBEPAVCCTextFieldDelegate@2@XZ
?getDelegate@CCTouchHandler@cocos2d@@QAEPAVCCTouchDelegate@2@XZ
?getDelegate@ObjectDecoder@@QBEPAVObjectDecoderDelegate@@XZ
?getDelta@CCShuffleTiles@cocos2d@@QAE?AVCCSize@2@ABV32@@Z
?getDelta@CCTouch@cocos2d@@QBE?AVCCPoint@2@XZ
?getDeltaTime@CCDirector@cocos2d@@UAEMXZ
?getDescendants@CCSpriteBatchNode@cocos2d@@QAEPAVCCArray@2@XZ
?getDesignResolutionSize@CCEGLViewProtocol@cocos2d@@UBEABVCCSize@2@XZ
?getDictForKey@DS_Dictionary@@QAEPAVCCDictionary@cocos2d@@PBD_N@Z
?getDimensions@CCLabelTTF@cocos2d@@QAE?AVCCSize@2@XZ
?getDisabledColor@CCMenuItemLabel@cocos2d@@UAEABU_ccColor3B@2@XZ
?getDisabledImage@CCMenuItemSprite@cocos2d@@UAEPAVCCNode@2@XZ
?getDisplaySize@CCEGLView@cocos2d@@QAE?AVCCSize@2@XZ
?getDisplayedColor@CCLabelBMFont@cocos2d@@UAEABU_ccColor3B@2@XZ
?getDisplayedColor@CCLayerRGBA@cocos2d@@UAEABU_ccColor3B@2@XZ
?getDisplayedColor@CCNodeRGBA@cocos2d@@UAEABU_ccColor3B@2@XZ
?getDisplayedOpacity@CCLabelBMFont@cocos2d@@UAEEXZ
?getDisplayedOpacity@CCLayerRGBA@cocos2d@@UAEEXZ
?getDisplayedOpacity@CCNodeRGBA@cocos2d@@UAEEXZ
?getDistance@CCPoint@cocos2d@@QBEMABV12@@Z
?getDistanceSq@CCPoint@cocos2d@@QBEMABV12@@Z
?getDontCallWillSwitch@CCDirector@cocos2d@@QBE_NXZ
?getDontDraw@CCSprite@cocos2d@@QBE_NXZ
?getDontOpacityFade@CCMotionStreak@cocos2d@@QBE_NXZ
?getDoubleForKey@CCUserDefault@cocos2d@@QAENPBD@Z
?getDoubleForKey@CCUserDefault@cocos2d@@QAENPBDN@Z
?getDuration@CCAnimation@cocos2d@@UAEMXZ
?getDuration@CCFiniteTimeAction@cocos2d@@QAEMXZ
?getDuration@CCParticleSystem@cocos2d@@UAEMXZ
?getElapsed@CCActionInterval@cocos2d@@QAEMXZ
?getEmissionRate@CCParticleSystem@cocos2d@@UAEMXZ
?getEmitterMode@CCParticleSystem@cocos2d@@UAEHXZ
?getEnabledSelectors@CCTouchHandler@cocos2d@@QAEHXZ
?getEndColor@CCLayerGradient@cocos2d@@UAEABU_ccColor3B@2@XZ
?getEndColor@CCParticleSystem@cocos2d@@UAEABU_ccColor4F@2@XZ
?getEndColorVar@CCParticleSystem@cocos2d@@UAEABU_ccColor4F@2@XZ
?getEndOpacity@CCLayerGradient@cocos2d@@UAEEXZ
?getEndRadius@CCParticleSystem@cocos2d@@UAEMXZ
?getEndRadiusVar@CCParticleSystem@cocos2d@@UAEMXZ
?getEndSize@CCParticleSystem@cocos2d@@UAEMXZ
?getEndSizeVar@CCParticleSystem@cocos2d@@UAEMXZ
?getEndSpin@CCParticleSystem@cocos2d@@UAEMXZ
?getEndSpinVar@CCParticleSystem@cocos2d@@UAEMXZ
?getEyeXYZ@CCCamera@cocos2d@@QAEXPAM00@Z
?getFPSImageData@CCDirector@cocos2d@@IAEXPAPAEPAI@Z
?getFileData@CCFileUtils@cocos2d@@UAEPAEPBD0PAK@Z
?getFileDataFromZip@CCFileUtils@cocos2d@@UAEPAEPBD0PAK@Z
?getFirstKey@CCDictionary@cocos2d@@QAE?AV?$basic_string@DU?$char_traits@D@std@@V?$allocator@D@2@@std@@XZ
?getFloatForKey@CCUserDefault@cocos2d@@QAEMPBD@Z
?getFloatForKey@CCUserDefault@cocos2d@@QAEMPBDM@Z
?getFloatForKey@DS_Dictionary@@QAEMPBD@Z
?getFntFile@CCLabelBMFont@cocos2d@@QAEPBDXZ
?getFontName@CCLabelTTF@cocos2d@@QAEPBDXZ
?getFontSize@CCLabelTTF@cocos2d@@QAEMXZ
?getForcePrio@CCTouchDispatcher@cocos2d@@QBE_NXZ
?getForceSmoothFix@CCDirector@cocos2d@@QBE_NXZ
?getForceTimer@CCApplication@cocos2d@@QBE_NXZ
?getForcedTarget@CCTargetedAction@cocos2d@@QBEPAVCCNode@2@XZ
?getFrameName@CCSpriteFrame@cocos2d@@QBE?AV?$basic_string@DU?$char_traits@D@std@@V?$allocator@D@2@@std@@XZ
?getFrameSize@CCEGLViewProtocol@cocos2d@@UBEABVCCSize@2@XZ
?getFrameZoomFactor@CCEGLView@cocos2d@@QAEMXZ
?getFrames@CCAnimation@cocos2d@@QBEPAVCCArray@2@XZ
?getFullPathForDirectoryAndFilename@CCFileUtils@cocos2d@@MAE?AV?$basic_string@DU?$char_traits@D@std@@V?$allocator@D@2@@std@@ABV34@0@Z
?getFullscreen@CCApplication@cocos2d@@QBE_NXZ
?getGLServerState@CCNode@cocos2d@@UAE?AW4ccGLServerState@2@XZ
?getGravity@CCParticleSystem@cocos2d@@UAEABVCCPoint@2@XZ
?getGrid@CCGrid3DAction@cocos2d@@UAEPAVCCGridBase@2@XZ
?getGrid@CCGridAction@cocos2d@@UAEPAVCCGridBase@2@XZ
?getGrid@CCNode@cocos2d@@UAEPAVCCGridBase@2@XZ
?getGrid@CCTiledGrid3DAction@cocos2d@@UAEPAVCCGridBase@2@XZ
?getGridSize@CCGridBase@cocos2d@@QAEABVCCSize@2@XZ
?getGroupName@CCTMXObjectGroup@cocos2d@@QAEPBDXZ
?getHandler@CCNotificationObserver@cocos2d@@UAEHXZ
?getHeight@CCImage@cocos2d@@QBEGXZ
?getHeight@CCTextureETC@cocos2d@@QBEIXZ
?getHighestChildZ@CCScene@cocos2d@@QAEHXZ
?getHorizontalAlignment@CCLabelTTF@cocos2d@@QAE?AW4CCTextAlignment@2@XZ
?getID@CCTouch@cocos2d@@QBEHXZ
?getIndexOfKey@DS_Dictionary@@QAEIPBD@Z
?getIndexOfKeyWithClosestAlphaNumericalMatch@DS_Dictionary@@QAEIPBD@Z
?getInnerAction@CCActionEase@cocos2d@@UAEPAVCCActionInterval@2@XZ
?getInnerAction@CCRepeat@cocos2d@@QAEPAVCCFiniteTimeAction@2@XZ
?getInnerAction@CCRepeatForever@cocos2d@@QAEPAVCCActionInterval@2@XZ
?getInnerAction@CCSpeed@cocos2d@@QAEPAVCCActionInterval@2@XZ
?getIntKey@CCDictElement@cocos2d@@QBEHXZ
?getIntegerForKey@CCUserDefault@cocos2d@@QAEHPBD@Z
?getIntegerForKey@CCUserDefault@cocos2d@@QAEHPBDH@Z
?getIntegerForKey@DS_Dictionary@@QAEHPBD@Z
?getInterval@CCTimer@cocos2d@@QBEMXZ
?getIsBatched@CCLabelBMFont@cocos2d@@QBE_NXZ
?getIsFullscreen@CCEGLView@cocos2d@@QBE_NXZ
?getIsTransitioning@CCDirector@cocos2d@@QBE_NXZ
?getKey@DS_Dictionary@@QAE?AV?$basic_string@DU?$char_traits@D@std@@V?$allocator@D@2@@std@@I@Z
?getKeyboardDispatcher@CCDirector@cocos2d@@UAEPAVCCKeyboardDispatcher@2@XZ
?getKeypadDispatcher@CCDirector@cocos2d@@UAEPAVCCKeypadDispatcher@2@XZ
?getLabel@CCMenuItemLabel@cocos2d@@UAEPAVCCNode@2@XZ
?getLayerAttribs@CCTMXMapInfo@cocos2d@@QBEHXZ
?getLayerName@CCTMXLayer@cocos2d@@QAEPBDXZ
?getLayerOrientation@CCTMXLayer@cocos2d@@QBEIXZ
?getLayerSize@CCTMXLayer@cocos2d@@QBEABVCCSize@2@XZ
?getLayers@CCTMXMapInfo@cocos2d@@UAEPAVCCArray@2@XZ
?getLength@CCPoint@cocos2d@@QBEMXZ
?getLengthSq@CCPoint@cocos2d@@QBEMXZ
?getLensEffect@CCLens3D@cocos2d@@QAEMXZ
?getLetterPosXLeft@CCLabelBMFont@cocos2d@@AAEMPAVCCSprite@2@@Z
?getLetterPosXRight@CCLabelBMFont@cocos2d@@AAEMPAVCCSprite@2@@Z
?getLife@CCParticleSystem@cocos2d@@UAEMXZ
?getLifeVar@CCParticleSystem@cocos2d@@UAEMXZ
?getLoadedTextureQuality@CCDirector@cocos2d@@QBE?AW4TextureQuality@2@XZ
?getLocation@CCTouch@cocos2d@@QBE?AVCCPoint@2@XZ
?getLocationInView@CCTouch@cocos2d@@QBE?AVCCPoint@2@XZ
?getLoops@CCAnimation@cocos2d@@QBEIXZ
?getM_bFirstTick@CCActionInterval@cocos2d@@QBE_NXZ
?getM_fMaxSeg@CCMotionStreak@cocos2d@@QBEMXZ
?getManualSortChildren@CCSpriteBatchNode@cocos2d@@QBE_NXZ
?getMapOrientation@CCTMXTiledMap@cocos2d@@QBEHXZ
?getMapSize@CCTMXMapInfo@cocos2d@@QBEABVCCSize@2@XZ
?getMapSize@CCTMXTiledMap@cocos2d@@QBEABVCCSize@2@XZ
?getMapTileSize@CCTMXLayer@cocos2d@@QBEABVCCSize@2@XZ
?getMaxModelviewStackDepth@CCConfiguration@cocos2d@@QBEHXZ
?getMaxS@CCTexture2D@cocos2d@@UAEMXZ
?getMaxT@CCTexture2D@cocos2d@@UAEMXZ
?getMaxTextureSize@CCConfiguration@cocos2d@@QBEHXZ
?getMaxTextureUnits@CCConfiguration@cocos2d@@QBEHXZ
?getMaxX@CCRect@cocos2d@@QBEMXZ
?getMaxY@CCRect@cocos2d@@QBEMXZ
?getMidX@CCRect@cocos2d@@QBEMXZ
?getMidY@CCRect@cocos2d@@QBEMXZ
?getMidpoint@CCProgressTimer@cocos2d@@UAE?AVCCPoint@2@XZ
?getMinX@CCRect@cocos2d@@QBEMXZ
?getMinY@CCRect@cocos2d@@QBEMXZ
?getMouseDispatcher@CCDirector@cocos2d@@UAEPAVCCMouseDispatcher@2@XZ
?getName@CCComponent@cocos2d@@QBEPBDXZ
?getName@CCNotificationObserver@cocos2d@@UAEPADXZ
?getName@CCTexture2D@cocos2d@@UAEIXZ
?getName@CCTextureETC@cocos2d@@QBEIXZ
?getNewFilename@CCFileUtils@cocos2d@@MAE?AV?$basic_string@DU?$char_traits@D@std@@V?$allocator@D@2@@std@@PBD@Z
?getNextScene@CCDirector@cocos2d@@QAEPAVCCScene@2@XZ
?getNormalImage@CCMenuItemSprite@cocos2d@@UAEPAVCCNode@2@XZ
?getNotificationNode@CCDirector@cocos2d@@QAEPAVCCNode@2@XZ
?getNumKeys@DS_Dictionary@@QAEIXZ
?getNumber@CCConfiguration@cocos2d@@QBENPBDN@Z
?getObjType@CCObject@cocos2d@@QBE?AW4CCObjectType@2@XZ
?getObject@CCCallFuncO@cocos2d@@QAEPAVCCObject@2@XZ
?getObject@CCConfiguration@cocos2d@@QBEPAVCCObject@2@PBD@Z
?getObject@CCDictElement@cocos2d@@QBEPAVCCObject@2@XZ
?getObject@CCNotificationObserver@cocos2d@@UAEPAVCCObject@2@XZ
?getObjectForKey@DS_Dictionary@@QAEPAVCCObject@cocos2d@@PBD@Z
?getObjectGroups@CCTMXMapInfo@cocos2d@@UAEPAVCCArray@2@XZ
?getObjectGroups@CCTMXTiledMap@cocos2d@@UAEPAVCCArray@2@XZ
?getObjects@CCTMXObjectGroup@cocos2d@@UAEPAVCCArray@2@XZ
?getObserverHandlerByName@CCNotificationCenter@cocos2d@@QAEHPBD@Z
?getOffset@CCSpriteFrame@cocos2d@@QAEABVCCPoint@2@XZ
?getOffsetInPixels@CCSpriteFrame@cocos2d@@QAEABVCCPoint@2@XZ
?getOffsetPosition@CCSprite@cocos2d@@QAEABVCCPoint@2@XZ
?getOpacity@CCLabelBMFont@cocos2d@@UAEEXZ
?getOpacity@CCLayerRGBA@cocos2d@@UAEEXZ
?getOpacity@CCMotionStreak@cocos2d@@UAEEXZ
?getOpacity@CCNodeRGBA@cocos2d@@UAEEXZ
?getOpacity@CCProgressTimer@cocos2d@@UBEEXZ
?getOpacityModifyRGB@CCParticleSystem@cocos2d@@UAE_NXZ
?getOpenGLView@CCDirector@cocos2d@@QAEPAVCCEGLView@2@XZ
?getOrderOfArrival@CCNode@cocos2d@@UAEIXZ
?getOrientation@CCTMXMapInfo@cocos2d@@QBEHXZ
?getOriginalSize@CCSpriteFrame@cocos2d@@QAEABVCCSize@2@XZ
?getOriginalSizeInPixels@CCSpriteFrame@cocos2d@@QAEABVCCSize@2@XZ
?getOriginalTarget@CCAction@cocos2d@@QAEPAVCCNode@2@XZ
?getOwner@CCComponent@cocos2d@@QBEPAVCCNode@2@XZ
?getParallaxArray@CCParallaxNode@cocos2d@@QBEPAU_ccArray@2@XZ
?getParent@CCNode@cocos2d@@UAEPAV12@XZ
?getParentElement@CCTMXMapInfo@cocos2d@@QBEHXZ
?getParentGID@CCTMXMapInfo@cocos2d@@QBEIXZ
?getParticleCount@CCParticleSystem@cocos2d@@UAEIXZ
?getPathForFilename@CCFileUtils@cocos2d@@MAE?AV?$basic_string@DU?$char_traits@D@std@@V?$allocator@D@2@@std@@ABV34@00@Z
?getPathForFilename@CCFileUtilsWin32@cocos2d@@MAE?AV?$basic_string@DU?$char_traits@D@std@@V?$allocator@D@2@@std@@ABV34@00@Z
?getPercentage@CCProgressTimer@cocos2d@@QAEMXZ
?getPeriod@CCEaseElastic@cocos2d@@QAEMXZ
?getPerp@CCPoint@cocos2d@@QBE?AV12@XZ
?getPixelFormat@CCTexture2D@cocos2d@@UAE?AW4CCTexture2DPixelFormat@2@XZ
?getPixelsHigh@CCTexture2D@cocos2d@@UAEIXZ
?getPixelsWide@CCTexture2D@cocos2d@@UAEIXZ
?getPlaceHolder@CCTextFieldTTF@cocos2d@@UAEPBDXZ
?getPoints@CCCardinalSplineTo@cocos2d@@QAEPAVCCPointArray@2@XZ
?getPosVar@CCParticleSystem@cocos2d@@UAEABVCCPoint@2@XZ
?getPosition@CCLens3D@cocos2d@@QAEABVCCPoint@2@XZ
?getPosition@CCNode@cocos2d@@UAEABVCCPoint@2@XZ
?getPosition@CCNode@cocos2d@@UAEXPAM0@Z
?getPosition@CCRipple3D@cocos2d@@QAEABVCCPoint@2@XZ
?getPosition@CCTwirl@cocos2d@@QAEABVCCPoint@2@XZ
?getPositionOffset@CCTMXObjectGroup@cocos2d@@QBEABVCCPoint@2@XZ
?getPositionType@CCParticleSystem@cocos2d@@UAE?AW4tCCPositionType@2@XZ
?getPositionX@CCNode@cocos2d@@UAEMXZ
?getPositionY@CCNode@cocos2d@@UAEMXZ
?getPreviousLocation@CCTouch@cocos2d@@QBE?AVCCPoint@2@XZ
?getPreviousLocationInView@CCTouch@cocos2d@@QBE?AVCCPoint@2@XZ
?getPriority@CCTouchHandler@cocos2d@@QAEHXZ
?getProgram@CCGLProgram@cocos2d@@QAE?BIXZ
?getProjection@CCDirector@cocos2d@@QAE?AW4ccDirectorProjection@2@XZ
?getProperties@CCTMXLayer@cocos2d@@UAEPAVCCDictionary@2@XZ
?getProperties@CCTMXLayerInfo@cocos2d@@UAEPAVCCDictionary@2@XZ
?getProperties@CCTMXMapInfo@cocos2d@@UAEPAVCCDictionary@2@XZ
?getProperties@CCTMXObjectGroup@cocos2d@@UAEPAVCCDictionary@2@XZ
?getProperties@CCTMXTiledMap@cocos2d@@UAEPAVCCDictionary@2@XZ
?getQuad@CCSprite@cocos2d@@QAE?AU_ccV3F_C4B_T2F_Quad@2@XZ
?getQuads@CCTextureAtlas@cocos2d@@UAEPAU_ccV3F_C4B_T2F_Quad@2@XZ
?getQuadsToDraw@CCAtlasNode@cocos2d@@UAEIXZ
?getRPerp@CCPoint@cocos2d@@QBE?AV12@XZ
?getRadialAccel@CCParticleSystem@cocos2d@@UAEMXZ
?getRadialAccelVar@CCParticleSystem@cocos2d@@UAEMXZ
?getRate@CCAccelAmplitude@cocos2d@@QAEMXZ
?getRate@CCAccelDeccelAmplitude@cocos2d@@QAEMXZ
?getRate@CCDeccelAmplitude@cocos2d@@QAEMXZ
?getRate@CCEaseRateAction@cocos2d@@QAEMXZ
?getRecenterChildren@CCAnimate@cocos2d@@QBE_NXZ
?getRecenterFrames@CCAnimate@cocos2d@@QBE_NXZ
?getRect@CCSpriteFrame@cocos2d@@QAEABVCCRect@2@XZ
?getRectArrayForKey@DS_Dictionary@@QAE?AV?$vector@VCCRect@cocos2d@@V?$allocator@VCCRect@cocos2d@@@std@@@std@@PBD@Z
?getRectForKey@DS_Dictionary@@QAE?AVCCRect@cocos2d@@PBD@Z
?getRectInPixels@CCSpriteFrame@cocos2d@@QAEABVCCRect@2@XZ
?getResourceRootPath@CCApplication@cocos2d@@QAEABV?$basic_string@DU?$char_traits@D@std@@V?$allocator@D@2@@std@@XZ
?getRestoreOriginalFrame@CCAnimation@cocos2d@@QBE_NXZ
?getResult@CCPrettyPrinter@cocos2d@@UAE?AV?$basic_string@DU?$char_traits@D@std@@V?$allocator@D@2@@std@@XZ
?getRetinaFactor@CCEGLView@cocos2d@@QBEHXZ
?getReuseGrid@CCGridBase@cocos2d@@QAEHXZ
?getRotatePerSecond@CCParticleSystem@cocos2d@@UAEMXZ
?getRotatePerSecondVar@CCParticleSystem@cocos2d@@UAEMXZ
?getRotation@CCNode@cocos2d@@UAEMXZ
?getRotationIsDir@CCParticleSystem@cocos2d@@UAE_NXZ
?getRotationX@CCNode@cocos2d@@UAEMXZ
?getRotationY@CCNode@cocos2d@@UAEMXZ
?getRunningScene@CCDirector@cocos2d@@QAEPAVCCScene@2@XZ
?getScale@CCNode@cocos2d@@UAEMXZ
?getScaleX@CCEGLViewProtocol@cocos2d@@QBEMXZ
?getScaleX@CCNode@cocos2d@@UAEMXZ
?getScaleY@CCEGLViewProtocol@cocos2d@@QBEMXZ
?getScaleY@CCNode@cocos2d@@UAEMXZ
?getScaledContentSize@CCNode@cocos2d@@UAE?AVCCSize@2@XZ
?getSceneDelegate@CCDirector@cocos2d@@UBEPAVCCSceneDelegate@2@XZ
?getSceneReference@CCDirector@cocos2d@@QBEPAVCCScene@2@XZ
?getScheduler@CCDirector@cocos2d@@UAEPAVCCScheduler@2@XZ
?getScheduler@CCNode@cocos2d@@UAEPAVCCScheduler@2@XZ
?getScissorRect@CCEGLViewProtocol@cocos2d@@UAE?AVCCRect@2@XZ
?getScreenBottom@CCDirector@cocos2d@@QAEMXZ
?getScreenLeft@CCDirector@cocos2d@@QAEMXZ
?getScreenRight@CCDirector@cocos2d@@QAEMXZ
?getScreenScaleFactor@CCDirector@cocos2d@@QAEMXZ
?getScreenScaleFactorH@CCDirector@cocos2d@@QAEMXZ
?getScreenScaleFactorMax@CCDirector@cocos2d@@QAEMXZ
?getScreenScaleFactorW@CCDirector@cocos2d@@QAEMXZ
?getScreenTop@CCDirector@cocos2d@@QAEMXZ
?getScriptAccelerateHandlerEntry@CCLayer@cocos2d@@QAEPAVCCScriptHandlerEntry@2@XZ
?getScriptEngine@CCScriptEngineManager@cocos2d@@QAEPAVCCScriptEngineProtocol@2@XZ
?getScriptHandler@CCCallFunc@cocos2d@@QAEHXZ
?getScriptHandler@CCNode@cocos2d@@QAEHXZ
?getScriptHandler@CCNotificationCenter@cocos2d@@QAEHXZ
?getScriptHandler@CCTimer@cocos2d@@QAEHXZ
?getScriptKeypadHandlerEntry@CCLayer@cocos2d@@QAEPAVCCScriptHandlerEntry@2@XZ
?getScriptTapHandler@CCMenuItem@cocos2d@@QAEHXZ
?getScriptTouchHandlerEntry@CCLayer@cocos2d@@QAEPAVCCTouchScriptHandlerEntry@2@XZ
?getScriptType@CCScriptEngineProtocol@cocos2d@@UAE?AW4ccScriptType@2@XZ
?getSearchPaths@CCFileUtils@cocos2d@@UAEABV?$vector@V?$basic_string@DU?$char_traits@D@std@@V?$allocator@D@2@@std@@V?$allocator@V?$basic_string@DU?$char_traits@D@std@@V?$allocator@D@2@@std@@@2@@std@@XZ
?getSearchResolutionsOrder@CCFileUtils@cocos2d@@UAEABV?$vector@V?$basic_string@DU?$char_traits@D@std@@V?$allocator@D@2@@std@@V?$allocator@V?$basic_string@DU?$char_traits@D@std@@V?$allocator@D@2@@std@@@2@@std@@XZ
?getSecondsPerFrame@CCDirector@cocos2d@@QAEMXZ
?getSelectedImage@CCMenuItemSprite@cocos2d@@UAEPAVCCNode@2@XZ
?getSelectedIndex@CCMenuItemToggle@cocos2d@@UAEIXZ
?getSelector@CCNotificationObserver@cocos2d@@UAEP8CCObject@2@AEXPAV32@@ZXZ
?getSelector@CCTimer@cocos2d@@QBEP8CCObject@2@AEXM@ZXZ
?getSetOfTouchesEndOrCancel@CCEGLViewProtocol@cocos2d@@AAEXAAVCCSet@2@HQAHQAM2@Z
?getShaderProgram@CCNode@cocos2d@@UAEPAVCCGLProgram@2@XZ
?getShaderProgram@CCTexture2D@cocos2d@@UAEPAVCCGLProgram@2@XZ
?getShiftKeyPressed@CCKeyboardDispatcher@cocos2d@@QBE_NXZ
?getShouldCallGLFinish@CCEGLView@cocos2d@@QBE_NXZ
?getShouldHideCursor@CCEGLView@cocos2d@@QBE_NXZ
?getShutdownCalled@CCApplication@cocos2d@@QBE_NXZ
?getSkewX@CCNode@cocos2d@@UAEMXZ
?getSkewY@CCNode@cocos2d@@UAEMXZ
?getSleepMode@CCApplication@cocos2d@@QBE_NXZ
?getSmoothFix@CCApplication@cocos2d@@QBE_NXZ
?getSmoothFix@CCDirector@cocos2d@@QBE_NXZ
?getSmoothFixCheck@CCDirector@cocos2d@@QBE_NXZ
?getSmoothFixCounter@CCDirector@cocos2d@@QBEHXZ
?getSourcePosition@CCParticleSystem@cocos2d@@UAEABVCCPoint@2@XZ
?getSpeed@CCParticleSystem@cocos2d@@UAEMXZ
?getSpeed@CCSpeed@cocos2d@@QAEMXZ
?getSpeedMod@CCAction@cocos2d@@QBEMXZ
?getSpeedVar@CCParticleSystem@cocos2d@@UAEMXZ
?getSprite@CCProgressTimer@cocos2d@@QAEPAVCCSprite@2@XZ
?getSprite@CCRenderTexture@cocos2d@@UAEPAVCCSprite@2@XZ
?getSpriteFrame@CCAnimationFrame@cocos2d@@QBEPAVCCSpriteFrame@2@XZ
?getStartColor@CCLayerGradient@cocos2d@@UAEABU_ccColor3B@2@XZ
?getStartColor@CCParticleSystem@cocos2d@@UAEABU_ccColor4F@2@XZ
?getStartColorVar@CCParticleSystem@cocos2d@@UAEABU_ccColor4F@2@XZ
?getStartLocation@CCTouch@cocos2d@@QBE?AVCCPoint@2@XZ
?getStartLocationInView@CCTouch@cocos2d@@QBE?AVCCPoint@2@XZ
?getStartOpacity@CCLayerGradient@cocos2d@@UAEEXZ
?getStartRadius@CCParticleSystem@cocos2d@@UAEMXZ
?getStartRadiusVar@CCParticleSystem@cocos2d@@UAEMXZ
?getStartSize@CCParticleSystem@cocos2d@@UAEMXZ
?getStartSizeVar@CCParticleSystem@cocos2d@@UAEMXZ
?getStartSpin@CCParticleSystem@cocos2d@@UAEMXZ
?getStartSpinVar@CCParticleSystem@cocos2d@@UAEMXZ
?getStartupScriptFilename@CCApplication@cocos2d@@QAEABV?$basic_string@DU?$char_traits@D@std@@V?$allocator@D@2@@std@@XZ
?getStencil@CCClippingNode@cocos2d@@QBEPAVCCNode@2@XZ
?getStep@CCGridBase@cocos2d@@QAEABVCCPoint@2@XZ
?getStoringCharacters@CCTMXMapInfo@cocos2d@@QBE_NXZ
?getStrKey@CCDictElement@cocos2d@@QBEPBDXZ
?getString@CCLabelAtlas@cocos2d@@UAEPBDXZ
?getString@CCLabelBMFont@cocos2d@@UAEPBDXZ
?getString@CCLabelTTF@cocos2d@@UAEPBDXZ
?getString@CCTextFieldTTF@cocos2d@@UAEPBDXZ
?getStringArrayForKey@DS_Dictionary@@QAE?AV?$vector@V?$basic_string@DU?$char_traits@D@std@@V?$allocator@D@2@@std@@V?$allocator@V?$basic_string@DU?$char_traits@D@std@@V?$allocator@D@2@@std@@@2@@std@@PBD@Z
?getStringForKey@CCUserDefault@cocos2d@@QAE?AV?$basic_string@DU?$char_traits@D@std@@V?$allocator@D@2@@std@@PBD@Z
?getStringForKey@CCUserDefault@cocos2d@@QAE?AV?$basic_string@DU?$char_traits@D@std@@V?$allocator@D@2@@std@@PBDABV34@@Z
?getStringForKey@DS_Dictionary@@QAE?AV?$basic_string@DU?$char_traits@D@std@@V?$allocator@D@2@@std@@PBD@Z
?getSubItems@CCMenuItemToggle@cocos2d@@UAEPAVCCArray@2@XZ
?getTGAInfo@CCTileMapAtlas@cocos2d@@UAEPAUsImageTGA@2@XZ
?getTMXFileName@CCTMXMapInfo@cocos2d@@QAEPBDXZ
?getTag@CCAction@cocos2d@@QAEHXZ
?getTag@CCObject@cocos2d@@UBEHXZ
?getTangentialAccel@CCParticleSystem@cocos2d@@UAEMXZ
?getTangentialAccelVar@CCParticleSystem@cocos2d@@UAEMXZ
?getTarget@CCAction@cocos2d@@QAEPAVCCNode@2@XZ
?getTarget@CCNotificationObserver@cocos2d@@UAEPAVCCObject@2@XZ
?getTargetArray@CCLabelBMFont@cocos2d@@QBEPAVCCArray@2@XZ
?getTargetCallback@CCCallFunc@cocos2d@@QAEPAVCCObject@2@XZ
?getTargetPlatform@CCApplication@cocos2d@@UAE?AW4TargetPlatform@2@XZ
?getTargetPrio@CCTouchDispatcher@cocos2d@@QBEHXZ
?getTextDefinition@CCLabelTTF@cocos2d@@QAEPAU_ccFontDefinition@2@XZ
?getTexture@CCAtlasNode@cocos2d@@UAEPAVCCTexture2D@2@XZ
?getTexture@CCMotionStreak@cocos2d@@UAEPAVCCTexture2D@2@XZ
?getTexture@CCParticleBatchNode@cocos2d@@UAEPAVCCTexture2D@2@XZ
?getTexture@CCParticleSystem@cocos2d@@UAEPAVCCTexture2D@2@XZ
?getTexture@CCSprite@cocos2d@@UAEPAVCCTexture2D@2@XZ
?getTexture@CCSpriteBatchNode@cocos2d@@UAEPAVCCTexture2D@2@XZ
?getTexture@CCSpriteFrame@cocos2d@@QAEPAVCCTexture2D@2@XZ
?getTexture@CCTextureAtlas@cocos2d@@UAEPAVCCTexture2D@2@XZ
?getTextureAtlas@CCAtlasNode@cocos2d@@UAEPAVCCTextureAtlas@2@XZ
?getTextureAtlas@CCParticleBatchNode@cocos2d@@QBEPAVCCTextureAtlas@2@XZ
?getTextureAtlas@CCSprite@cocos2d@@QAEPAVCCTextureAtlas@2@XZ
?getTextureAtlas@CCSpriteBatchNode@cocos2d@@QAEPAVCCTextureAtlas@2@XZ
?getTextureRect@CCSprite@cocos2d@@QAEABVCCRect@2@XZ
?getTileProperties@CCTMXMapInfo@cocos2d@@QAEPAVCCDictionary@2@XZ
?getTileSet@CCTMXLayer@cocos2d@@UAEPAVCCTMXTilesetInfo@2@XZ
?getTileSize@CCTMXMapInfo@cocos2d@@QBEABVCCSize@2@XZ
?getTileSize@CCTMXTiledMap@cocos2d@@QBEABVCCSize@2@XZ
?getTiles@CCTMXLayer@cocos2d@@QBEPAIXZ
?getTilesets@CCTMXMapInfo@cocos2d@@UAEPAVCCArray@2@XZ
?getTimeScale@CCScheduler@cocos2d@@QAEMXZ
?getTlVertexMod@CCSprite@cocos2d@@QBEMXZ
?getTotalDelayUnits@CCAnimation@cocos2d@@QBEMXZ
?getTotalFrames@CCDirector@cocos2d@@QAEIXZ
?getTotalParticles@CCParticleSystem@cocos2d@@UAEIXZ
?getTotalQuads@CCTextureAtlas@cocos2d@@UAEIXZ
?getTouchDispatcher@CCDirector@cocos2d@@UAEPAVCCTouchDispatcher@2@XZ
?getTouchMode@CCLayer@cocos2d@@UAEHXZ
?getTouchPriority@CCLayer@cocos2d@@UAEHXZ
?getTrVertexMod@CCSprite@cocos2d@@QBEMXZ
?getType@CCProgressTimer@cocos2d@@QAE?AW4CCProgressTimerType@2@XZ
?getUnflippedOffsetPosition@CCSprite@cocos2d@@QAEABVCCPoint@2@XZ
?getUniformLocationForName@CCGLProgram@cocos2d@@QAEHPBD@Z
?getUpXYZ@CCCamera@cocos2d@@QAEXPAM00@Z
?getUsedAtlasCapacity@CCSpriteBatchNode@cocos2d@@QAEHXZ
?getUserData@CCNode@cocos2d@@UAEPAXXZ
?getUserInfo@CCAnimationFrame@cocos2d@@QBEPAVCCDictionary@2@XZ
?getUserObject@CCNode@cocos2d@@UAEPAVCCObject@2@XZ
?getValue@CCBool@cocos2d@@QBE_NXZ
?getValue@CCDouble@cocos2d@@QBENXZ
?getValue@CCFloat@cocos2d@@QBEMXZ
?getValue@CCInteger@cocos2d@@QBEHXZ
?getVec2ArrayForKey@DS_Dictionary@@QAE?AV?$vector@VCCPoint@cocos2d@@V?$allocator@VCCPoint@cocos2d@@@std@@@std@@PBD@Z
?getVec2ForKey@DS_Dictionary@@QAE?AVCCPoint@cocos2d@@PBD@Z
?getVector@CCLayerGradient@cocos2d@@UAEABVCCPoint@2@XZ
?getVertexZ@CCNode@cocos2d@@UAEMXZ
?getVerticalAlignment@CCLabelTTF@cocos2d@@QAE?AW4CCVerticalTextAlignment@2@XZ
?getVerticalSyncEnabled@CCApplication@cocos2d@@QBE_NXZ
?getViewName@CCEGLViewProtocol@cocos2d@@QAEPBDXZ
?getViewPortRect@CCEGLViewProtocol@cocos2d@@QBEABVCCRect@2@XZ
?getVisibleOrigin@CCDirector@cocos2d@@QAE?AVCCPoint@2@XZ
?getVisibleOrigin@CCEGLViewProtocol@cocos2d@@UBE?AVCCPoint@2@XZ
?getVisibleSize@CCDirector@cocos2d@@QAE?AVCCSize@2@XZ
?getVisibleSize@CCEGLViewProtocol@cocos2d@@UBE?AVCCSize@2@XZ
?getWidth@CCImage@cocos2d@@QBEGXZ
?getWidth@CCTextureETC@cocos2d@@QBEIXZ
?getWinSize@CCDirector@cocos2d@@QAE?AVCCSize@2@XZ
?getWinSizeInPixels@CCDirector@cocos2d@@QAE?AVCCSize@2@XZ
?getWindow@CCEGLView@cocos2d@@QBEPAUGLFWwindow@@XZ
?getWindowedSize@CCEGLView@cocos2d@@QBE?AVCCSize@2@XZ
?getWritablePath2@CCFileUtils@cocos2d@@UAE?AV?$basic_string@DU?$char_traits@D@std@@V?$allocator@D@2@@std@@XZ
?getWritablePath2@CCFileUtilsWin32@cocos2d@@UAE?AV?$basic_string@DU?$char_traits@D@std@@V?$allocator@D@2@@std@@XZ
?getWritablePath@CCFileUtilsWin32@cocos2d@@UAE?AV?$basic_string@DU?$char_traits@D@std@@V?$allocator@D@2@@std@@XZ
?getXMLFilePath@CCUserDefault@cocos2d@@SAABV?$basic_string@DU?$char_traits@D@std@@V?$allocator@D@2@@std@@XZ
?getXOffset@CCSpriteExtra@cocos2d@@QBEMXZ
?getYOffset@CCSpriteExtra@cocos2d@@QBEMXZ
?getZEye@CCCamera@cocos2d@@SAMXZ
?getZEye@CCDirector@cocos2d@@QAEMXZ
?getZOrder@CCNode@cocos2d@@UAEHXZ
?gettimeofday@cocos2d@@YAHPAUtimeval@@PAUtimezone@1@@Z
?gettimeofdayCocos2d@CCTime@cocos2d@@SAHPAUcc_timeval@2@PAX@Z
?handleTouchesBegin@CCEGLViewProtocol@cocos2d@@UAEXHQAHQAM1@Z
?handleTouchesCancel@CCEGLViewProtocol@cocos2d@@UAEXHQAHQAM1@Z
?handleTouchesEnd@CCEGLViewProtocol@cocos2d@@UAEXHQAHQAM1@Z
?handleTouchesMove@CCEGLViewProtocol@cocos2d@@UAEXHQAHQAM1@Z
?handlerWithDelegate@CCKeyboardHandler@cocos2d@@SAPAV12@PAVCCKeyboardDelegate@2@@Z
?handlerWithDelegate@CCKeypadHandler@cocos2d@@SAPAV12@PAVCCKeypadDelegate@2@@Z
?handlerWithDelegate@CCMouseHandler@cocos2d@@SAPAV12@PAVCCMouseDelegate@2@@Z
?handlerWithDelegate@CCStandardTouchHandler@cocos2d@@SAPAV12@PAVCCTouchDelegate@2@H@Z
?handlerWithDelegate@CCTargetedTouchHandler@cocos2d@@SAPAV12@PAVCCTouchDelegate@2@H_N@Z
?handlerWithDelegate@CCTouchHandler@cocos2d@@SAPAV12@PAVCCTouchDelegate@2@H@Z
?hasAlpha@CCImage@cocos2d@@QAE_NXZ
?hasDelegate@CCIMEDispatcher@cocos2d@@QAE_NXZ
?hasMipmaps@CCTexture2D@cocos2d@@QAE_NXZ
?hasPremultipliedAlpha@CCTexture2D@cocos2d@@QAE_NXZ
?hash_flag@?$AlignTypeSpec@$0A@@fmt@@QBE_NXZ
?hash_flag@?$TypeSpec@$0A@@fmt@@QBE_NXZ
?hash_flag@?$TypeSpec@$0FI@@fmt@@QBE_NXZ
?hash_flag@?$TypeSpec@$0GC@@fmt@@QBE_NXZ
?hash_flag@?$TypeSpec@$0GP@@fmt@@QBE_NXZ
?hash_flag@?$TypeSpec@$0HI@@fmt@@QBE_NXZ
?hexToChar@ZipUtils@cocos2d@@SAEABV?$basic_string@DU?$char_traits@D@std@@V?$allocator@D@2@@std@@@Z
?hideOutShowIn@CCTransitionScene@cocos2d@@QAEXXZ
?highestAtlasIndexInChild@CCSpriteBatchNode@cocos2d@@QAEIPAVCCSprite@2@@Z
?iconify@CCEGLView@cocos2d@@QAEXXZ
?id@?1??getClassTypeInfo@CCCallFuncN@cocos2d@@UAEJXZ@4JB
?id@?1??getClassTypeInfo@CCCallFuncND@cocos2d@@UAEJXZ@4JB
?id@?1??getClassTypeInfo@CCCallFuncO@cocos2d@@UAEJXZ@4JB
?id@?1??getClassTypeInfo@CCDirector@cocos2d@@UAEJXZ@4JB
?id@?1??getClassTypeInfo@CCFileUtils@cocos2d@@UAEJXZ@4JB
?ignoreAnchorPointForPosition@CCNode@cocos2d@@UAEX_N@Z
?ignoreAnchorPointForPosition@CCSprite@cocos2d@@UAEX_N@Z
?increaseAtlasCapacity@CCSpriteBatchNode@cocos2d@@QAEXI@Z
?increaseAtlasCapacity@CCSpriteBatchNode@cocos2d@@QAEXXZ
?increaseAtlasCapacityTo@CCParticleBatchNode@cocos2d@@AAEXI@Z
?increaseTotalQuadsWith@CCTextureAtlas@cocos2d@@QAEXI@Z
?incrementForcePrio@CCTouchDispatcher@cocos2d@@QAEXH@Z
?indexOfObject@CCArray@cocos2d@@QBEIPAVCCObject@2@@Z
?init@CCAnimation@cocos2d@@QAE_NXZ
?init@CCAnimationCache@cocos2d@@QAE_NXZ
?init@CCArray@cocos2d@@QAE_NXZ
?init@CCCamera@cocos2d@@QAEXXZ
?init@CCClippingNode@cocos2d@@UAE_NPAVCCNode@2@@Z
?init@CCClippingNode@cocos2d@@UAE_NXZ
?init@CCComponent@cocos2d@@UAE_NXZ
?init@CCConfiguration@cocos2d@@QAE_NXZ
?init@CCContentManager@@QAE_NXZ
?init@CCDirector@cocos2d@@UAE_NXZ
?init@CCDrawNode@cocos2d@@UAE_NXZ
?init@CCFileUtils@cocos2d@@MAE_NXZ
?init@CCFileUtilsWin32@cocos2d@@UAE_NXZ
?init@CCLabelBMFont@cocos2d@@UAE_NXZ
?init@CCLabelTTF@cocos2d@@UAE_NXZ
?init@CCLayer@cocos2d@@UAE_NXZ
?init@CCLayerColor@cocos2d@@UAE_NXZ
?init@CCLayerGradient@cocos2d@@UAE_NXZ
?init@CCLayerRGBA@cocos2d@@UAE_NXZ
?init@CCMenu@cocos2d@@UAE_NXZ
?init@CCMenuItemImage@cocos2d@@UAE_NXZ
?init@CCNode@cocos2d@@UAE_NXZ
?init@CCNodeRGBA@cocos2d@@UAE_NXZ
?init@CCParticleExplosion@cocos2d@@UAE_NXZ
?init@CCParticleFire@cocos2d@@UAE_NXZ
?init@CCParticleFireworks@cocos2d@@UAE_NXZ
?init@CCParticleFlower@cocos2d@@UAE_NXZ
?init@CCParticleGalaxy@cocos2d@@UAE_NXZ
?init@CCParticleMeteor@cocos2d@@UAE_NXZ
?init@CCParticleRain@cocos2d@@UAE_NXZ
?init@CCParticleSmoke@cocos2d@@UAE_NXZ
?init@CCParticleSnow@cocos2d@@UAE_NXZ
?init@CCParticleSpiral@cocos2d@@UAE_NXZ
?init@CCParticleSun@cocos2d@@UAE_NXZ
?init@CCParticleSystem@cocos2d@@UAE_NXZ
?init@CCProfiler@cocos2d@@QAE_NXZ
?init@CCRemoveSelf@cocos2d@@QAE_N_N@Z
?init@CCSAXParser@cocos2d@@QAE_NPBD@Z
?init@CCScene@cocos2d@@UAE_NXZ
?init@CCShaderCache@cocos2d@@AAE_NXZ
?init@CCSprite@cocos2d@@UAE_NXZ
?init@CCSpriteBatchNode@cocos2d@@UAE_NXZ
?init@CCSpriteFrameCache@cocos2d@@QAE_NXZ
?init@CCTouchDispatcher@cocos2d@@QAE_NXZ
?init@ObjectDecoder@@UAE_NXZ
?init@SystemError@fmt@@AAEXHV?$BasicStringRef@D@2@ABVArgList@2@@Z
?init@WindowsError@fmt@@AAEXHV?$BasicStringRef@D@2@ABVArgList@2@@Z
?initGlew@CCEGLView@cocos2d@@IAE_NXZ
?initIndices@CCParticleSystemQuad@cocos2d@@QAEXXZ
?initParticle@CCParticleSystem@cocos2d@@QAEXPAUsCCParticle@2@@Z
?initPremultipliedATextureWithImage@CCTexture2D@cocos2d@@AAE_NPAVCCImage@2@II@Z
?initScenes@CCTransitionMoveInB@cocos2d@@UAEXXZ
?initScenes@CCTransitionMoveInL@cocos2d@@UAEXXZ
?initScenes@CCTransitionMoveInR@cocos2d@@UAEXXZ
?initScenes@CCTransitionMoveInT@cocos2d@@UAEXXZ
?initScenes@CCTransitionSlideInB@cocos2d@@UAEXXZ
?initScenes@CCTransitionSlideInL@cocos2d@@UAEXXZ
?initScenes@CCTransitionSlideInR@cocos2d@@UAEXXZ
?initScenes@CCTransitionSlideInT@cocos2d@@UAEXXZ
?initTexCoordsWithRect@CCParticleSystemQuad@cocos2d@@QAEXABVCCRect@2@@Z
?initWithAction@CCAccelAmplitude@cocos2d@@QAE_NPAVCCAction@2@M@Z
?initWithAction@CCAccelDeccelAmplitude@cocos2d@@QAE_NPAVCCAction@2@M@Z
?initWithAction@CCActionEase@cocos2d@@QAE_NPAVCCActionInterval@2@@Z
?initWithAction@CCDeccelAmplitude@cocos2d@@QAE_NPAVCCAction@2@M@Z
?initWithAction@CCEaseElastic@cocos2d@@QAE_NPAVCCActionInterval@2@M@Z
?initWithAction@CCEaseRateAction@cocos2d@@QAE_NPAVCCActionInterval@2@M@Z
?initWithAction@CCRepeat@cocos2d@@QAE_NPAVCCFiniteTimeAction@2@I@Z
?initWithAction@CCRepeatForever@cocos2d@@QAE_NPAVCCActionInterval@2@@Z
?initWithAction@CCReverseTime@cocos2d@@QAE_NPAVCCFiniteTimeAction@2@@Z
?initWithAction@CCSpeed@cocos2d@@QAE_NPAVCCActionInterval@2@M@Z
?initWithAnimation@CCAnimate@cocos2d@@QAE_NPAVCCAnimation@2@@Z
?initWithAnimationFrames@CCAnimation@cocos2d@@QAE_NPAVCCArray@2@MI@Z
?initWithArray@CCArray@cocos2d@@QAE_NPAV12@@Z
?initWithArray@CCLayerMultiplex@cocos2d@@QAE_NPAVCCArray@2@@Z
?initWithArray@CCMenu@cocos2d@@QAE_NPAVCCArray@2@@Z
?initWithCapacity@CCArray@cocos2d@@QAE_NI@Z
?initWithCapacity@CCPointArray@cocos2d@@QAE_NI@Z
?initWithColor@CCLayerColor@cocos2d@@UAE_NABU_ccColor4B@2@@Z
?initWithColor@CCLayerColor@cocos2d@@UAE_NABU_ccColor4B@2@MM@Z
?initWithColor@CCLayerGradient@cocos2d@@UAE_NABU_ccColor4B@2@0@Z
?initWithColor@CCLayerGradient@cocos2d@@UAE_NABU_ccColor4B@2@0ABVCCPoint@2@@Z
?initWithData@CCTexture2D@cocos2d@@QAE_NPBXW4CCTexture2DPixelFormat@2@IIABVCCSize@2@@Z
?initWithDelegate@CCKeyboardHandler@cocos2d@@UAE_NPAVCCKeyboardDelegate@2@@Z
?initWithDelegate@CCKeypadHandler@cocos2d@@UAE_NPAVCCKeypadDelegate@2@@Z
?initWithDelegate@CCMouseHandler@cocos2d@@UAE_NPAVCCMouseDelegate@2@@Z
?initWithDelegate@CCStandardTouchHandler@cocos2d@@UAE_NPAVCCTouchDelegate@2@H@Z
?initWithDelegate@CCTargetedTouchHandler@cocos2d@@QAE_NPAVCCTouchDelegate@2@H_N@Z
?initWithDelegate@CCTouchHandler@cocos2d@@UAE_NPAVCCTouchDelegate@2@H@Z
?initWithDictionary@CCParticleSystem@cocos2d@@QAE_NPAVCCDictionary@2@@Z
?initWithDictionary@CCParticleSystem@cocos2d@@QAE_NPAVCCDictionary@2@PBD@Z
?initWithDuration@CCActionInterval@cocos2d@@QAE_NM@Z
?initWithDuration@CCActionTween@cocos2d@@QAE_NMPBDMM@Z
?initWithDuration@CCBezierBy@cocos2d@@QAE_NMABU_ccBezierConfig@2@@Z
?initWithDuration@CCBezierTo@cocos2d@@QAE_NMABU_ccBezierConfig@2@@Z
?initWithDuration@CCBlink@cocos2d@@QAE_NMI@Z
?initWithDuration@CCCardinalSplineTo@cocos2d@@QAE_NMPAVCCPointArray@2@M@Z
?initWithDuration@CCCatmullRomBy@cocos2d@@QAE_NMPAVCCPointArray@2@@Z
?initWithDuration@CCCatmullRomTo@cocos2d@@QAE_NMPAVCCPointArray@2@@Z
?initWithDuration@CCFadeTo@cocos2d@@QAE_NME@Z
?initWithDuration@CCFlipX3D@cocos2d@@UAE_NM@Z
?initWithDuration@CCGridAction@cocos2d@@UAE_NMABVCCSize@2@@Z
?initWithDuration@CCJumpBy@cocos2d@@QAE_NMABVCCPoint@2@MI@Z
?initWithDuration@CCJumpTiles3D@cocos2d@@QAE_NMABVCCSize@2@IM@Z
?initWithDuration@CCLens3D@cocos2d@@QAE_NMABVCCSize@2@ABVCCPoint@2@M@Z
?initWithDuration@CCLiquid@cocos2d@@QAE_NMABVCCSize@2@IM@Z
?initWithDuration@CCMoveBy@cocos2d@@QAE_NMABVCCPoint@2@@Z
?initWithDuration@CCMoveTo@cocos2d@@QAE_NMABVCCPoint@2@@Z
?initWithDuration@CCOrbitCamera@cocos2d@@QAE_NMMMMMMM@Z
?initWithDuration@CCProgressFromTo@cocos2d@@QAE_NMMM@Z
?initWithDuration@CCProgressTo@cocos2d@@QAE_NMM@Z
?initWithDuration@CCRipple3D@cocos2d@@QAE_NMABVCCSize@2@ABVCCPoint@2@MIM@Z
?initWithDuration@CCRotateBy@cocos2d@@QAE_NMM@Z
?initWithDuration@CCRotateBy@cocos2d@@QAE_NMMM@Z
?initWithDuration@CCRotateTo@cocos2d@@QAE_NMM@Z
?initWithDuration@CCRotateTo@cocos2d@@UAE_NMMM@Z
?initWithDuration@CCScaleTo@cocos2d@@QAE_NMM@Z
?initWithDuration@CCScaleTo@cocos2d@@QAE_NMMM@Z
?initWithDuration@CCShaky3D@cocos2d@@QAE_NMABVCCSize@2@H_N@Z
?initWithDuration@CCShakyTiles3D@cocos2d@@UAE_NMABVCCSize@2@H_N@Z
?initWithDuration@CCShatteredTiles3D@cocos2d@@UAE_NMABVCCSize@2@H_N@Z
?initWithDuration@CCShuffleTiles@cocos2d@@UAE_NMABVCCSize@2@I@Z
?initWithDuration@CCSkewBy@cocos2d@@UAE_NMMM@Z
?initWithDuration@CCSkewTo@cocos2d@@UAE_NMMM@Z
?initWithDuration@CCSplitCols@cocos2d@@UAE_NMI@Z
?initWithDuration@CCSplitRows@cocos2d@@UAE_NMI@Z
?initWithDuration@CCTintBy@cocos2d@@QAE_NMFFF@Z
?initWithDuration@CCTintTo@cocos2d@@QAE_NMEEE@Z
?initWithDuration@CCTransitionFade@cocos2d@@UAE_NMPAVCCScene@2@@Z
?initWithDuration@CCTransitionFade@cocos2d@@UAE_NMPAVCCScene@2@ABU_ccColor3B@2@@Z
?initWithDuration@CCTransitionPageTurn@cocos2d@@UAE_NMPAVCCScene@2@_N@Z
?initWithDuration@CCTransitionScene@cocos2d@@UAE_NMPAVCCScene@2@@Z
?initWithDuration@CCTransitionSceneOriented@cocos2d@@UAE_NMPAVCCScene@2@W4tOrientation@2@@Z
?initWithDuration@CCTurnOffTiles@cocos2d@@UAE_NMABVCCSize@2@I@Z
?initWithDuration@CCTwirl@cocos2d@@QAE_NMABVCCSize@2@VCCPoint@2@IM@Z
?initWithDuration@CCWaves3D@cocos2d@@QAE_NMABVCCSize@2@IM@Z
?initWithDuration@CCWaves@cocos2d@@QAE_NMABVCCSize@2@IM_N1@Z
?initWithDuration@CCWavesTiles3D@cocos2d@@UAE_NMABVCCSize@2@IM@Z
?initWithETCFile@CCTexture2D@cocos2d@@QAE_NPBD@Z
?initWithFNTfile@CCBMFontConfiguration@cocos2d@@QAE_NPBD@Z
?initWithFade@CCMotionStreak@cocos2d@@QAE_NMMMABU_ccColor3B@2@PAVCCTexture2D@2@@Z
?initWithFade@CCMotionStreak@cocos2d@@QAE_NMMMABU_ccColor3B@2@PBD@Z
?initWithFile@CCParticleBatchNode@cocos2d@@QAE_NPBDI@Z
?initWithFile@CCParticleSystem@cocos2d@@QAE_NPBD@Z
?initWithFile@CCSprite@cocos2d@@UAE_NPBD@Z
?initWithFile@CCSprite@cocos2d@@UAE_NPBDABVCCRect@2@@Z
?initWithFile@CCSpriteBatchNode@cocos2d@@QAE_NPBDI@Z
?initWithFile@CCTextureAtlas@cocos2d@@QAE_NPBDI@Z
?initWithFile@CCTextureETC@cocos2d@@QAE_NPBD@Z
?initWithFlipX@CCFlipX@cocos2d@@QAE_N_N@Z
?initWithFlipY@CCFlipY@cocos2d@@QAE_N_N@Z
?initWithFormat@CCString@cocos2d@@QAA_NPBDZZ
?initWithFormatAndValist@CCString@cocos2d@@AAE_NPBDPAD@Z
?initWithFullScreen@CCEGLView@cocos2d@@IAE_NABV?$basic_string@DU?$char_traits@D@std@@V?$allocator@D@2@@std@@@Z
?initWithFullscreen@CCEGLView@cocos2d@@IAE_NABV?$basic_string@DU?$char_traits@D@std@@V?$allocator@D@2@@std@@ABUGLFWvidmode@@PAUGLFWmonitor@@@Z
?initWithImage@CCTexture2D@cocos2d@@QAE_NPAVCCImage@2@@Z
?initWithImageData@CCImage@cocos2d@@QAE_NPAXHW4EImageFormat@12@HHH@Z
?initWithImageFile@CCImage@cocos2d@@QAE_NPBDW4EImageFormat@12@@Z
?initWithImageFileThreadSafe@CCImage@cocos2d@@QAE_NPBDW4EImageFormat@12@@Z
?initWithItem@CCMenuItemToggle@cocos2d@@QAE_NPAVCCMenuItem@2@@Z
?initWithLabel@CCMenuItemLabel@cocos2d@@QAE_NPAVCCNode@2@PAVCCObject@2@P842@AEX1@Z@Z
?initWithLayers@CCLayerMultiplex@cocos2d@@QAE_NPAVCCLayer@2@PAD@Z
?initWithNormalImage@CCMenuItemImage@cocos2d@@QAE_NPBD00PAVCCObject@2@P832@AEX1@Z@Z
?initWithNormalSprite@CCMenuItemSprite@cocos2d@@QAE_NPAVCCNode@2@00PAVCCObject@2@P842@AEX1@Z@Z
?initWithObject@CCArray@cocos2d@@QAE_NPAVCCObject@2@@Z
?initWithObjects@CCArray@cocos2d@@QAA_NPAVCCObject@2@ZZ
?initWithPVRFile@CCTexture2D@cocos2d@@QAE_NPBD@Z
?initWithPlaceHolder@CCTextFieldTTF@cocos2d@@QAE_NPBD0M@Z
?initWithPlaceHolder@CCTextFieldTTF@cocos2d@@QAE_NPBDABVCCSize@2@W4CCTextAlignment@2@0M@Z
?initWithPosition@CCPlace@cocos2d@@QAE_NABVCCPoint@2@@Z
?initWithRect@CCEGLView@cocos2d@@IAE_NABV?$basic_string@DU?$char_traits@D@std@@V?$allocator@D@2@@std@@VCCRect@2@M@Z
?initWithScriptHandler@CCTimer@cocos2d@@QAE_NHM@Z
?initWithSize@CCFlipX3D@cocos2d@@UAE_NABVCCSize@2@M@Z
?initWithSize@CCGridBase@cocos2d@@QAE_NABVCCSize@2@@Z
?initWithSize@CCGridBase@cocos2d@@QAE_NABVCCSize@2@PAVCCTexture2D@2@_N@Z
?initWithSprite@CCProgressTimer@cocos2d@@QAE_NPAVCCSprite@2@@Z
?initWithSpriteFrame@CCAnimationFrame@cocos2d@@QAE_NPAVCCSpriteFrame@2@MPAVCCDictionary@2@@Z
?initWithSpriteFrame@CCSprite@cocos2d@@UAE_NPAVCCSpriteFrame@2@@Z
?initWithSpriteFrameName@CCSprite@cocos2d@@UAE_NPBD@Z
?initWithSpriteFrames@CCAnimation@cocos2d@@QAE_NPAVCCArray@2@M@Z
?initWithString@CCImage@cocos2d@@QAE_NPBDHHW4ETextAlign@12@0H@Z
?initWithString@CCLabelAtlas@cocos2d@@QAE_NPBD0@Z
?initWithString@CCLabelAtlas@cocos2d@@QAE_NPBD0III@Z
?initWithString@CCLabelAtlas@cocos2d@@QAE_NPBDPAVCCTexture2D@2@III@Z
?initWithString@CCLabelBMFont@cocos2d@@QAE_NPBD0MW4CCTextAlignment@2@VCCPoint@2@@Z
?initWithString@CCLabelTTF@cocos2d@@QAE_NPBD0M@Z
?initWithString@CCLabelTTF@cocos2d@@QAE_NPBD0MABVCCSize@2@W4CCTextAlignment@2@@Z
?initWithString@CCLabelTTF@cocos2d@@QAE_NPBD0MABVCCSize@2@W4CCTextAlignment@2@W4CCVerticalTextAlignment@2@@Z
?initWithString@CCMenuItemAtlasFont@cocos2d@@QAE_NPBD0HHDPAVCCObject@2@P832@AEX1@Z@Z
?initWithString@CCMenuItemFont@cocos2d@@QAE_NPBDPAVCCObject@2@P832@AEX1@Z@Z
?initWithString@CCTexture2D@cocos2d@@QAE_NPBD0M@Z
?initWithString@CCTexture2D@cocos2d@@QAE_NPBD0MABVCCSize@2@W4CCTextAlignment@2@W4CCVerticalTextAlignment@2@@Z
?initWithString@CCTexture2D@cocos2d@@QAE_NPBDPAU_ccFontDefinition@2@@Z
?initWithStringAndTextDefinition@CCLabelTTF@cocos2d@@QAE_NPBDAAU_ccFontDefinition@2@@Z
?initWithTMXFile@CCTMXMapInfo@cocos2d@@QAE_NPBD@Z
?initWithTMXFile@CCTMXTiledMap@cocos2d@@QAE_NPBD@Z
?initWithTarget@CCCallFunc@cocos2d@@UAE_NPAVCCObject@2@@Z
?initWithTarget@CCCallFuncN@cocos2d@@UAE_NPAVCCObject@2@P832@AEXPAVCCNode@2@@Z@Z
?initWithTarget@CCCallFuncND@cocos2d@@UAE_NPAVCCObject@2@P832@AEXPAVCCNode@2@PAX@Z2@Z
?initWithTarget@CCCallFuncO@cocos2d@@UAE_NPAVCCObject@2@P832@AEX0@Z0@Z
?initWithTarget@CCFollow@cocos2d@@QAE_NPAVCCNode@2@ABVCCRect@2@@Z
?initWithTarget@CCMenuItem@cocos2d@@QAE_NPAVCCObject@2@P832@AEX0@Z@Z
?initWithTarget@CCMenuItemToggle@cocos2d@@QAE_NPAVCCObject@2@P832@AEX0@ZPAVCCMenuItem@2@PAD@Z
?initWithTarget@CCTargetedAction@cocos2d@@QAE_NPAVCCNode@2@PAVCCFiniteTimeAction@2@@Z
?initWithTarget@CCTimer@cocos2d@@QAE_NPAVCCObject@2@P832@AEXM@Z@Z
?initWithTarget@CCTimer@cocos2d@@QAE_NPAVCCObject@2@P832@AEXM@ZMIM@Z
?initWithTexture@CCAtlasNode@cocos2d@@QAE_NPAVCCTexture2D@2@III@Z
?initWithTexture@CCParticleBatchNode@cocos2d@@QAE_NPAVCCTexture2D@2@I@Z
?initWithTexture@CCSprite@cocos2d@@UAE_NPAVCCTexture2D@2@@Z
?initWithTexture@CCSprite@cocos2d@@UAE_NPAVCCTexture2D@2@ABVCCRect@2@@Z
?initWithTexture@CCSprite@cocos2d@@UAE_NPAVCCTexture2D@2@ABVCCRect@2@_N@Z
?initWithTexture@CCSpriteBatchNode@cocos2d@@QAE_NPAVCCTexture2D@2@I@Z
?initWithTexture@CCSpriteFrame@cocos2d@@QAE_NPAVCCTexture2D@2@ABVCCRect@2@@Z
?initWithTexture@CCSpriteFrame@cocos2d@@QAE_NPAVCCTexture2D@2@ABVCCRect@2@_NABVCCPoint@2@ABVCCSize@2@@Z
?initWithTexture@CCTextureAtlas@cocos2d@@QAE_NPAVCCTexture2D@2@I@Z
?initWithTextureFilename@CCSpriteFrame@cocos2d@@QAE_NPBDABVCCRect@2@@Z
?initWithTextureFilename@CCSpriteFrame@cocos2d@@QAE_NPBDABVCCRect@2@_NABVCCPoint@2@ABVCCSize@2@@Z
?initWithTileFile@CCAtlasNode@cocos2d@@QAE_NPBDIII@Z
?initWithTileFile@CCTileMapAtlas@cocos2d@@QAE_NPBD0HH@Z
?initWithTilesetInfo@CCTMXLayer@cocos2d@@QAE_NPAVCCTMXTilesetInfo@2@PAVCCTMXLayerInfo@2@PAVCCTMXMapInfo@2@@Z
?initWithTimes@CCReuseGrid@cocos2d@@QAE_NH@Z
?initWithTotalParticles@CCParticleExplosion@cocos2d@@UAE_NI@Z
?initWithTotalParticles@CCParticleFire@cocos2d@@UAE_NI@Z
?initWithTotalParticles@CCParticleFireworks@cocos2d@@UAE_NI@Z
?initWithTotalParticles@CCParticleFlower@cocos2d@@UAE_NI@Z
?initWithTotalParticles@CCParticleGalaxy@cocos2d@@UAE_NI@Z
?initWithTotalParticles@CCParticleMeteor@cocos2d@@UAE_NI@Z
?initWithTotalParticles@CCParticleRain@cocos2d@@UAE_NI@Z
?initWithTotalParticles@CCParticleSmoke@cocos2d@@UAE_NI@Z
?initWithTotalParticles@CCParticleSnow@cocos2d@@UAE_NI@Z
?initWithTotalParticles@CCParticleSpiral@cocos2d@@UAE_NI@Z
?initWithTotalParticles@CCParticleSun@cocos2d@@UAE_NI@Z
?initWithTotalParticles@CCParticleSystem@cocos2d@@UAE_NI@Z
?initWithTotalParticles@CCParticleSystemQuad@cocos2d@@UAE_NI@Z
?initWithTwoActions@CCSequence@cocos2d@@QAE_NPAVCCFiniteTimeAction@2@0@Z
?initWithTwoActions@CCSpawn@cocos2d@@QAE_NPAVCCFiniteTimeAction@2@0@Z
?initWithVertexShaderByteArray@CCGLProgram@cocos2d@@QAE_NPBD0@Z
?initWithVertexShaderFilename@CCGLProgram@cocos2d@@QAE_NPBD0@Z
?initWithWidthAndHeight@CCRenderTexture@cocos2d@@QAE_NHHW4CCTexture2DPixelFormat@2@@Z
?initWithWidthAndHeight@CCRenderTexture@cocos2d@@QAE_NHHW4CCTexture2DPixelFormat@2@I@Z
?initWithXML@CCTMXMapInfo@cocos2d@@QAE_NPBD0@Z
?initWithXML@CCTMXTiledMap@cocos2d@@QAE_NPBD0@Z
?initXMLFilePath@CCUserDefault@cocos2d@@CAXXZ
?insertChild@CCNode@cocos2d@@AAEXPAV12@H@Z
?insertChild@CCParticleBatchNode@cocos2d@@QAEXPAVCCParticleSystem@2@I@Z
?insertChild@CCSpriteBatchNode@cocos2d@@QAEXPAVCCSprite@2@I@Z
?insertControlPoint@CCPointArray@cocos2d@@QAEXAAVCCPoint@2@I@Z
?insertObject@CCArray@cocos2d@@QAEXPAVCCObject@2@I@Z
?insertQuad@CCTextureAtlas@cocos2d@@QAEXPAU_ccV3F_C4B_T2F_Quad@2@I@Z
?insertQuadFromIndex@CCTextureAtlas@cocos2d@@QAEXII@Z
?insertQuadFromSprite@CCSpriteBatchNode@cocos2d@@IAEXPAVCCSprite@2@I@Z
?insertQuads@CCTextureAtlas@cocos2d@@QAEXPAU_ccV3F_C4B_T2F_Quad@2@II@Z
?insertText@CCIMEDelegate@cocos2d@@MAEXPBDH@Z
?insertText@CCTextFieldTTF@cocos2d@@MAEXPBDH@Z
?insertTileForGID@CCTMXLayer@cocos2d@@AAEPAVCCSprite@2@IABVCCPoint@2@@Z
?intValue@CCString@cocos2d@@QBEHXZ
?internalInit@CCTMXMapInfo@cocos2d@@AAEXPBD0@Z
?intersectsRect@CCRect@cocos2d@@QBE_NABV12@@Z
?isAbsolutePath@CCFileUtils@cocos2d@@UAE_NABV?$basic_string@DU?$char_traits@D@std@@V?$allocator@D@2@@std@@@Z
?isAbsolutePath@CCFileUtilsWin32@cocos2d@@UAE_NABV?$basic_string@DU?$char_traits@D@std@@V?$allocator@D@2@@std@@@Z
?isAccelerometerEnabled@CCLayer@cocos2d@@UAE_NXZ
?isActive@CCGridBase@cocos2d@@QAE_NXZ
?isActive@CCParticleSystem@cocos2d@@UAE_NXZ
?isAutoDraw@CCRenderTexture@cocos2d@@QBE_NXZ
?isAutoRemoveOnFinish@CCParticleSystem@cocos2d@@UAE_NXZ
?isBlendAdditive@CCParticleSystem@cocos2d@@UAE_NXZ
?isBoundarySet@CCFollow@cocos2d@@QAE_NXZ
?isCascadeColorEnabled@CCLabelBMFont@cocos2d@@UAE_NXZ
?isCascadeColorEnabled@CCLayerRGBA@cocos2d@@UAE_NXZ
?isCascadeColorEnabled@CCNodeRGBA@cocos2d@@UAE_NXZ
?isCascadeOpacityEnabled@CCLabelBMFont@cocos2d@@UAE_NXZ
?isCascadeOpacityEnabled@CCLayerRGBA@cocos2d@@UAE_NXZ
?isCascadeOpacityEnabled@CCNodeRGBA@cocos2d@@UAE_NXZ
?isCompressedInterpolation@CCLayerGradient@cocos2d@@UAE_NXZ
?isDirty@CCCamera@cocos2d@@QAE_NXZ
?isDirty@CCSprite@cocos2d@@UAE_NXZ
?isDirty@CCTextureAtlas@cocos2d@@QAE_NXZ
?isDispatchEvents@CCTouchDispatcher@cocos2d@@QAE_NXZ
?isDisplayStats@CCDirector@cocos2d@@QAE_NXZ
?isDone@CCAction@cocos2d@@UAE_NXZ
?isDone@CCActionInstant@cocos2d@@UAE_NXZ
?isDone@CCActionInterval@cocos2d@@UAE_NXZ
?isDone@CCFollow@cocos2d@@UAE_NXZ
?isDone@CCRepeat@cocos2d@@UAE_NXZ
?isDone@CCRepeatForever@cocos2d@@UAE_NXZ
?isDone@CCSpeed@cocos2d@@UAE_NXZ
?isEmpty@CCComponentContainer@cocos2d@@QBE_NXZ
?isEnabled@CCComponent@cocos2d@@UBE_NXZ
?isEnabled@CCMenu@cocos2d@@UAE_NXZ
?isEnabled@CCMenuItem@cocos2d@@UAE_NXZ
?isEqual@CCObject@cocos2d@@UAE_NPBV12@@Z
?isEqual@CCString@cocos2d@@UAE_NPBVCCObject@2@@Z
?isEqualToArray@CCArray@cocos2d@@QAE_NPAV12@@Z
?isFastMode@CCMotionStreak@cocos2d@@QAE_NXZ
?isFileExist@CCFileUtilsWin32@cocos2d@@UAE_NABV?$basic_string@DU?$char_traits@D@std@@V?$allocator@D@2@@std@@@Z
?isFlipX@CCSprite@cocos2d@@QAE_NXZ
?isFlipY@CCSprite@cocos2d@@QAE_NXZ
?isFrameDisplayed@CCSprite@cocos2d@@UAE_NPAVCCSpriteFrame@2@@Z
?isFull@CCParticleSystem@cocos2d@@QAE_NXZ
?isIgnoreAnchorPointForPosition@CCNode@cocos2d@@UAE_NXZ
?isInverted@CCClippingNode@cocos2d@@QBE_NXZ
?isKeyboardEnabled@CCLayer@cocos2d@@UAE_NXZ
?isKeypadEnabled@CCLayer@cocos2d@@UAE_NXZ
?isMouseEnabled@CCLayer@cocos2d@@UAE_NXZ
?isNextDeltaTimeZero@CCDirector@cocos2d@@QAE_NXZ
?isOpacityModifyRGB@CCAtlasNode@cocos2d@@UAE_NXZ
?isOpacityModifyRGB@CCLabelBMFont@cocos2d@@UAE_NXZ
?isOpacityModifyRGB@CCLayerRGBA@cocos2d@@UAE_NXZ
?isOpacityModifyRGB@CCMenu@cocos2d@@UAE_NXZ
?isOpacityModifyRGB@CCMotionStreak@cocos2d@@UAE_NXZ
?isOpacityModifyRGB@CCNodeRGBA@cocos2d@@UAE_NXZ
?isOpacityModifyRGB@CCSprite@cocos2d@@UAE_NXZ
?isOpenGLReady@CCEGLView@cocos2d@@UAE_NXZ
?isPaused@CCDirector@cocos2d@@QAE_NXZ
?isPopupNotify@CCFileUtils@cocos2d@@UAE_NXZ
?isPremultipliedAlpha@CCImage@cocos2d@@QAE_NXZ
?isRetinaEnabled@CCEGLView@cocos2d@@QBE_NXZ
?isReverseDirection@CCProgressTimer@cocos2d@@QAE_NXZ
?isRotated@CCSpriteFrame@cocos2d@@QAE_NXZ
?isRunning@CCNode@cocos2d@@UAE_NXZ
?isScissorEnabled@CCEGLViewProtocol@cocos2d@@UAE_NXZ
?isSecureTextEntry@CCTextFieldTTF@cocos2d@@UAE_NXZ
?isSelected@CCMenuItem@cocos2d@@UAE_NXZ
?isSendCleanupToScene@CCDirector@cocos2d@@QAE_NXZ
?isSingleReference@CCObject@cocos2d@@QBE_NXZ
?isStartingPositionInitialized@CCMotionStreak@cocos2d@@QAE_NXZ
?isSwallowsTouches@CCTargetedTouchHandler@cocos2d@@QAE_NXZ
?isTargetPaused@CCScheduler@cocos2d@@QAE_NPAVCCObject@2@@Z
?isTextureFlipped@CCGridBase@cocos2d@@QAE_NXZ
?isTextureRectRotated@CCSprite@cocos2d@@QAE_NXZ
?isTouchEnabled@CCLayer@cocos2d@@UAE_NXZ
?isVisible@CCNode@cocos2d@@UAE_NXZ
?isXMLFileExist@CCUserDefault@cocos2d@@SA_NXZ
?iscjk_unicode@cocos2d@@YA_NG@Z
?isspace_unicode@cocos2d@@YA_NG@Z
?itemForTouch@CCMenu@cocos2d@@IAEPAVCCMenuItem@2@PAVCCTouch@2@@Z
?keepData@CCTexture2D@cocos2d@@QAEPAXPAXI@Z
?kerningAmountForFirst@CCLabelBMFont@cocos2d@@AAEHGG@Z
?keyBackClicked@CCKeypadDelegate@cocos2d@@UAEXXZ
?keyBackClicked@CCLayer@cocos2d@@UAEXXZ
?keyDown@CCKeyboardDelegate@cocos2d@@UAEXW4enumKeyCodes@2@@Z
?keyDown@CCLayer@cocos2d@@UAEXW4enumKeyCodes@2@@Z
?keyMenuClicked@CCKeypadDelegate@cocos2d@@UAEXXZ
?keyMenuClicked@CCLayer@cocos2d@@UAEXXZ
?keyToString@CCKeyboardDispatcher@cocos2d@@QAEPBDW4enumKeyCodes@2@@Z
?keyUp@CCKeyboardDelegate@cocos2d@@UAEXW4enumKeyCodes@2@@Z
?keyboardDidHide@CCIMEDelegate@cocos2d@@MAEXAAUCCIMEKeyboardNotificationInfo@2@@Z
?keyboardDidShow@CCIMEDelegate@cocos2d@@MAEXAAUCCIMEKeyboardNotificationInfo@2@@Z
?keyboardWillHide@CCIMEDelegate@cocos2d@@MAEXAAUCCIMEKeyboardNotificationInfo@2@@Z
?keyboardWillShow@CCIMEDelegate@cocos2d@@MAEXAAUCCIMEKeyboardNotificationInfo@2@@Z
?lastObject@CCArray@cocos2d@@QAEPAVCCObject@2@XZ
?layerNamed@CCTMXTiledMap@cocos2d@@QAEPAVCCTMXLayer@2@PBD@Z
?leftMouseDown@CCApplication@cocos2d@@QAEXXZ
?leftMouseUp@CCApplication@cocos2d@@QAEXXZ
?length@CCString@cocos2d@@QBEIXZ
?lerp@CCPoint@cocos2d@@QBE?AV12@ABV12@M@Z
?levelForSceneInStack@CCDirector@cocos2d@@QAEHPAVCCScene@2@@Z
?limitLabelWidth@CCLabelBMFont@cocos2d@@QAEXMMM@Z
?link@CCGLProgram@cocos2d@@QAE_NXZ
?listenBackToForeground@CCDrawNode@cocos2d@@QAEXPAVCCObject@2@@Z
?listenBackToForeground@CCParticleSystemQuad@cocos2d@@QAEXPAVCCObject@2@@Z
?listenBackToForeground@CCTextureAtlas@cocos2d@@QAEXPAVCCObject@2@@Z
?listenToBackground@CCRenderTexture@cocos2d@@QAEXPAVCCObject@2@@Z
?listenToForeground@CCRenderTexture@cocos2d@@QAEXPAVCCObject@2@@Z
?load@xml_document@pugi@@QAE?AUxml_parse_result@2@AAV?$basic_istream@DU?$char_traits@D@std@@@std@@IW4xml_encoding@2@@Z
?load@xml_document@pugi@@QAE?AUxml_parse_result@2@AAV?$basic_istream@_WU?$char_traits@_W@std@@@std@@I@Z
?load@xml_document@pugi@@QAE?AUxml_parse_result@2@PBDI@Z
?loadConfigFile@CCConfiguration@cocos2d@@QAEXPBD@Z
?loadDefaultShader@CCShaderCache@cocos2d@@AAEXPAVCCGLProgram@2@H@Z
?loadDefaultShaders@CCShaderCache@cocos2d@@QAEXXZ
?loadDefaults@CCParticleSystem@cocos2d@@QAEXXZ
?loadFilenameLookupDictionaryFromFile@CCFileUtils@cocos2d@@UAEXPBD@Z
?loadRootSubDictFromCompressedFile@DS_Dictionary@@QAE_NPBD@Z
?loadRootSubDictFromFile@DS_Dictionary@@QAE_NPBD@Z
?loadRootSubDictFromString@DS_Dictionary@@QAE_NV?$basic_string@DU?$char_traits@D@std@@V?$allocator@D@2@@std@@@Z
?loadScaledDefaults@CCParticleSystem@cocos2d@@QAEXM@Z
?loadTGAfile@CCTileMapAtlas@cocos2d@@AAEXPBD@Z
?loadTexture@CCTextureETC@cocos2d@@AAE_NPBD@Z
?load_buffer@xml_document@pugi@@QAE?AUxml_parse_result@2@PBXIIW4xml_encoding@2@@Z
?load_buffer_inplace@xml_document@pugi@@QAE?AUxml_parse_result@2@PAXIIW4xml_encoding@2@@Z
?load_buffer_inplace_own@xml_document@pugi@@QAE?AUxml_parse_result@2@PAXIIW4xml_encoding@2@@Z
?load_file@xml_document@pugi@@QAE?AUxml_parse_result@2@PBDIW4xml_encoding@2@@Z
?load_file@xml_document@pugi@@QAE?AUxml_parse_result@2@PB_WIW4xml_encoding@2@@Z
?locate@CCCamera@cocos2d@@QAEXXZ
?logForOpenGLObject@CCGLProgram@cocos2d@@AAEPBDIP6AXIIPAH@ZP6AXIH0PAD@Z@Z
?lowestAtlasIndexInChild@CCSpriteBatchNode@cocos2d@@QAEIPAVCCSprite@2@@Z
?m_sFilePath@CCUserDefault@cocos2d@@0V?$basic_string@DU?$char_traits@D@std@@V?$allocator@D@2@@std@@A
?m_sbIsFilePathInitialized@CCUserDefault@cocos2d@@0_NA
?m_spUserDefault@CCUserDefault@cocos2d@@0PAV12@A
?manualSortAllChildren@CCSpriteBatchNode@cocos2d@@QAEXXZ
?mapBuffers@CCTextureAtlas@cocos2d@@AAEXXZ
?moveMouse@CCApplication@cocos2d@@QAEXHH@Z
?moveQuadsFromIndex@CCTextureAtlas@cocos2d@@QAEXII@Z
?moveQuadsFromIndex@CCTextureAtlas@cocos2d@@QAEXIII@Z
?mutableCopy@CCSet@cocos2d@@QAEPAV12@XZ
?newCCImage@CCRenderTexture@cocos2d@@QAEPAVCCImage@2@_N@Z
?nodeToParentTransform@CCNode@cocos2d@@UAE?BUCCAffineTransform@2@XZ
?nodeToWorldTransform@CCNode@cocos2d@@UAE?AUCCAffineTransform@2@XZ
?normalize@CCPoint@cocos2d@@QBE?AV12@XZ
?numberOfRunningActions@CCNode@cocos2d@@QAEIXZ
?numberOfRunningActionsInTarget@CCActionManager@cocos2d@@QAEIPAVCCObject@2@@Z
?objectAtIndex@CCArray@cocos2d@@QAEPAVCCObject@2@I@Z
?objectForKey@CCDictionary@cocos2d@@QAEPAVCCObject@2@ABV?$basic_string@DU?$char_traits@D@std@@V?$allocator@D@2@@std@@@Z
?objectForKey@CCDictionary@cocos2d@@QAEPAVCCObject@2@H@Z
?objectGroupNamed@CCTMXTiledMap@cocos2d@@QAEPAVCCTMXObjectGroup@2@PBD@Z
?objectNamed@CCTMXObjectGroup@cocos2d@@QAEPAVCCDictionary@2@PBD@Z
?observerExisted@CCNotificationCenter@cocos2d@@AAE_NPAVCCObject@2@PBD@Z
?onDraw@CCTextFieldDelegate@cocos2d@@UAE_NPAVCCTextFieldTTF@2@@Z
?onEnter@CCClippingNode@cocos2d@@UAEXXZ
?onEnter@CCComponent@cocos2d@@UAEXXZ
?onEnter@CCLayer@cocos2d@@UAEXXZ
?onEnter@CCNode@cocos2d@@UAEXXZ
?onEnter@CCTransitionCrossFade@cocos2d@@UAEXXZ
?onEnter@CCTransitionFade@cocos2d@@UAEXXZ
?onEnter@CCTransitionFadeTR@cocos2d@@UAEXXZ
?onEnter@CCTransitionFlipAngular@cocos2d@@UAEXXZ
?onEnter@CCTransitionFlipX@cocos2d@@UAEXXZ
?onEnter@CCTransitionFlipY@cocos2d@@UAEXXZ
?onEnter@CCTransitionJumpZoom@cocos2d@@UAEXXZ
?onEnter@CCTransitionMoveInL@cocos2d@@UAEXXZ
?onEnter@CCTransitionPageTurn@cocos2d@@UAEXXZ
?onEnter@CCTransitionProgress@cocos2d@@UAEXXZ
?onEnter@CCTransitionRotoZoom@cocos2d@@UAEXXZ
?onEnter@CCTransitionScene@cocos2d@@UAEXXZ
?onEnter@CCTransitionShrinkGrow@cocos2d@@UAEXXZ
?onEnter@CCTransitionSlideInL@cocos2d@@UAEXXZ
?onEnter@CCTransitionSplitCols@cocos2d@@UAEXXZ
?onEnter@CCTransitionTurnOffTiles@cocos2d@@UAEXXZ
?onEnter@CCTransitionZoomFlipAngular@cocos2d@@UAEXXZ
?onEnter@CCTransitionZoomFlipX@cocos2d@@UAEXXZ
?onEnter@CCTransitionZoomFlipY@cocos2d@@UAEXXZ
?onEnterTransitionDidFinish@CCClippingNode@cocos2d@@UAEXXZ
?onEnterTransitionDidFinish@CCLayer@cocos2d@@UAEXXZ
?onEnterTransitionDidFinish@CCNode@cocos2d@@UAEXXZ
?onExit@CCClippingNode@cocos2d@@UAEXXZ
?onExit@CCComponent@cocos2d@@UAEXXZ
?onExit@CCLayer@cocos2d@@UAEXXZ
?onExit@CCMenu@cocos2d@@UAEXXZ
?onExit@CCNode@cocos2d@@UAEXXZ
?onExit@CCTransitionCrossFade@cocos2d@@UAEXXZ
?onExit@CCTransitionFade@cocos2d@@UAEXXZ
?onExit@CCTransitionProgress@cocos2d@@UAEXXZ
?onExit@CCTransitionScene@cocos2d@@UAEXXZ
?onExitTransitionDidStart@CCClippingNode@cocos2d@@UAEXXZ
?onExitTransitionDidStart@CCNode@cocos2d@@UAEXXZ
?onGLFWCharCallback@CCEGLView@cocos2d@@IAEXPAUGLFWwindow@@I@Z
?onGLFWCursorEnterFunCallback@CCEGLView@cocos2d@@IAEXPAUGLFWwindow@@H@Z
?onGLFWDeviceChangeFunCallback@CCEGLView@cocos2d@@IAEXPAUGLFWwindow@@@Z
?onGLFWError@CCEGLView@cocos2d@@IAEXHPBD@Z
?onGLFWKeyCallback@CCEGLView@cocos2d@@IAEXPAUGLFWwindow@@HHHH@Z
?onGLFWMouseCallBack@CCEGLView@cocos2d@@IAEXPAUGLFWwindow@@HHH@Z
?onGLFWMouseMoveCallBack@CCEGLView@cocos2d@@IAEXPAUGLFWwindow@@NN@Z
?onGLFWMouseScrollCallback@CCEGLView@cocos2d@@IAEXPAUGLFWwindow@@NN@Z
?onGLFWWindowCloseFunCallback@CCEGLView@cocos2d@@IAEXPAUGLFWwindow@@@Z
?onGLFWWindowIconifyFunCallback@CCEGLView@cocos2d@@IAEXPAUGLFWwindow@@H@Z
?onGLFWWindowPosCallback@CCEGLView@cocos2d@@IAEXPAUGLFWwindow@@HH@Z
?onGLFWWindowSizeFunCallback@CCEGLView@cocos2d@@IAEXPAUGLFWwindow@@HH@Z
?onGLFWframebuffersize@CCEGLView@cocos2d@@IAEXPAUGLFWwindow@@HH@Z
?onTextFieldAttachWithIME@CCTextFieldDelegate@cocos2d@@UAE_NPAVCCTextFieldTTF@2@@Z
?onTextFieldDeleteBackward@CCTextFieldDelegate@cocos2d@@UAE_NPAVCCTextFieldTTF@2@PBDH@Z
?onTextFieldDetachWithIME@CCTextFieldDelegate@cocos2d@@UAE_NPAVCCTextFieldTTF@2@@Z
?onTextFieldInsertText@CCTextFieldDelegate@cocos2d@@UAE_NPAVCCTextFieldTTF@2@PBDH@Z
?openURL@CCApplication@cocos2d@@UAEXPBD@Z
?openURL@CCApplicationProtocol@cocos2d@@UAEXPBD@Z
?originalTile@CCTiledGrid3D@cocos2d@@QAE?AU_ccQuad3@2@ABVCCPoint@2@@Z
?originalTile@CCTiledGrid3DAction@cocos2d@@QAE?AU_ccQuad3@2@ABVCCPoint@2@@Z
?originalVertex@CCGrid3D@cocos2d@@QAE?AU_ccVertex3F@2@ABVCCPoint@2@@Z
?originalVertex@CCGrid3DAction@cocos2d@@QAE?AU_ccVertex3F@2@ABVCCPoint@2@@Z
?parentToNodeTransform@CCNode@cocos2d@@UAE?BUCCAffineTransform@2@XZ
?parse@CCSAXParser@cocos2d@@QAE_NPBD@Z
?parse@CCSAXParser@cocos2d@@QAE_NPBDI@Z
?parseCharacterDefinition@CCBMFontConfiguration@cocos2d@@AAEXV?$basic_string@DU?$char_traits@D@std@@V?$allocator@D@2@@std@@PAU_BMFontDef@2@@Z
?parseCommonArguments@CCBMFontConfiguration@cocos2d@@AAEXV?$basic_string@DU?$char_traits@D@std@@V?$allocator@D@2@@std@@@Z
?parseConfigFile@CCBMFontConfiguration@cocos2d@@AAEPAV?$set@IU?$less@I@std@@V?$allocator@I@2@@std@@PBD@Z
?parseImageFileName@CCBMFontConfiguration@cocos2d@@AAEXV?$basic_string@DU?$char_traits@D@std@@V?$allocator@D@2@@std@@PBD@Z
?parseInfoArguments@CCBMFontConfiguration@cocos2d@@AAEXV?$basic_string@DU?$char_traits@D@std@@V?$allocator@D@2@@std@@@Z
?parseInternalProperties@CCTMXLayer@cocos2d@@AAEXXZ
?parseKerningEntry@CCBMFontConfiguration@cocos2d@@AAEXV?$basic_string@DU?$char_traits@D@std@@V?$allocator@D@2@@std@@@Z
?parseLayer@CCTMXTiledMap@cocos2d@@AAEPAVCCTMXLayer@2@PAVCCTMXLayerInfo@2@PAVCCTMXMapInfo@2@@Z
?parseVersion1@CCAnimationCache@cocos2d@@AAEXPAVCCDictionary@2@@Z
?parseVersion2@CCAnimationCache@cocos2d@@AAEXPAVCCDictionary@2@@Z
?parseXMLFile@CCTMXMapInfo@cocos2d@@QAE_NPBD@Z
?parseXMLString@CCTMXMapInfo@cocos2d@@QAE_NPBD@Z
?pause@CCDirector@cocos2d@@QAEXXZ
?pauseAllRunningActions@CCActionManager@cocos2d@@QAEPAVCCSet@2@XZ
?pauseAllTargets@CCScheduler@cocos2d@@QAEPAVCCSet@2@XZ
?pauseAllTargetsWithMinPriority@CCScheduler@cocos2d@@QAEPAVCCSet@2@H@Z
?pauseSchedulerAndActions@CCNode@cocos2d@@QAEXXZ
?pauseTarget@CCActionManager@cocos2d@@QAEXPAVCCObject@2@@Z
?pauseTarget@CCScheduler@cocos2d@@QAEXPAVCCObject@2@@Z
?performSelector@CCNotificationObserver@cocos2d@@QAEXPAVCCObject@2@@Z
?placeTile@CCShuffleTiles@cocos2d@@QAEXABVCCPoint@2@PAUTile@2@@Z
?platformShutdown@CCApplication@cocos2d@@UAEXXZ
?plus_flag@?$AlignTypeSpec@$0A@@fmt@@QBE_NXZ
?plus_flag@?$TypeSpec@$0A@@fmt@@QBE_NXZ
?plus_flag@?$TypeSpec@$0FI@@fmt@@QBE_NXZ
?plus_flag@?$TypeSpec@$0GC@@fmt@@QBE_NXZ
?plus_flag@?$TypeSpec@$0GP@@fmt@@QBE_NXZ
?plus_flag@?$TypeSpec@$0HI@@fmt@@QBE_NXZ
?pollEvents@CCEGLView@cocos2d@@QAEXXZ
?pollInputEvents@CCEGLViewProtocol@cocos2d@@UAEXXZ
?pop@CCPoolManager@cocos2d@@QAEXXZ
?popScene@CCDirector@cocos2d@@QAEXXZ
?popSceneWithTransition@CCDirector@cocos2d@@QAE_NMW4PopTransition@2@@Z
?popToRootScene@CCDirector@cocos2d@@QAEXXZ
?popToSceneInStack@CCDirector@cocos2d@@QAEXPAVCCScene@2@@Z
?popToSceneStackLevel@CCDirector@cocos2d@@QAEXH@Z
?positionAt@CCTMXLayer@cocos2d@@QAE?AVCCPoint@2@ABV32@@Z
?positionForHexAt@CCTMXLayer@cocos2d@@AAE?AVCCPoint@2@ABV32@@Z
?positionForIsoAt@CCTMXLayer@cocos2d@@AAE?AVCCPoint@2@ABV32@@Z
?positionForOrthoAt@CCTMXLayer@cocos2d@@AAE?AVCCPoint@2@ABV32@@Z
?postNotification@CCNotificationCenter@cocos2d@@QAEXPBD@Z
?postNotification@CCNotificationCenter@cocos2d@@QAEXPBDPAVCCObject@2@@Z
?postStep@CCParticleSystem@cocos2d@@UAEXXZ
?postStep@CCParticleSystemQuad@cocos2d@@UAEXXZ
?precision@?$TypeSpec@$0A@@fmt@@QBEHXZ
?precision@?$TypeSpec@$0FI@@fmt@@QBEHXZ
?precision@?$TypeSpec@$0GC@@fmt@@QBEHXZ
?precision@?$TypeSpec@$0GP@@fmt@@QBEHXZ
?precision@?$TypeSpec@$0HI@@fmt@@QBEHXZ
?priorityIn@CCScheduler@cocos2d@@AAEXPAPAU_listEntry@2@PAVCCObject@2@H_N@Z
?programForKey@CCShaderCache@cocos2d@@QAEPAVCCGLProgram@2@PBD@Z
?programLog@CCGLProgram@cocos2d@@QAEPBDXZ
?progressTimerNodeWithRenderTexture@CCTransitionProgress@cocos2d@@MAEPAVCCProgressTimer@2@PAVCCRenderTexture@2@@Z
?progressTimerNodeWithRenderTexture@CCTransitionProgressHorizontal@cocos2d@@MAEPAVCCProgressTimer@2@PAVCCRenderTexture@2@@Z
?progressTimerNodeWithRenderTexture@CCTransitionProgressInOut@cocos2d@@MAEPAVCCProgressTimer@2@PAVCCRenderTexture@2@@Z
?progressTimerNodeWithRenderTexture@CCTransitionProgressOutIn@cocos2d@@MAEPAVCCProgressTimer@2@PAVCCRenderTexture@2@@Z
?progressTimerNodeWithRenderTexture@CCTransitionProgressRadialCCW@cocos2d@@MAEPAVCCProgressTimer@2@PAVCCRenderTexture@2@@Z
?progressTimerNodeWithRenderTexture@CCTransitionProgressRadialCW@cocos2d@@MAEPAVCCProgressTimer@2@PAVCCRenderTexture@2@@Z
?progressTimerNodeWithRenderTexture@CCTransitionProgressVertical@cocos2d@@MAEPAVCCProgressTimer@2@PAVCCRenderTexture@2@@Z
?project@CCPoint@cocos2d@@QBE?AV12@ABV12@@Z
?propertiesForGID@CCTMXTiledMap@cocos2d@@QAEPAVCCDictionary@2@H@Z
?propertyNamed@CCTMXLayer@cocos2d@@QAEPAVCCString@2@PBD@Z
?propertyNamed@CCTMXObjectGroup@cocos2d@@QAEPAVCCString@2@PBD@Z
?propertyNamed@CCTMXTiledMap@cocos2d@@QAEPAVCCString@2@PBD@Z
?purgeCachedData@CCDirector@cocos2d@@QAEXXZ
?purgeCachedData@CCLabelBMFont@cocos2d@@SAXXZ
?purgeCachedEntries@CCFileUtils@cocos2d@@UAEXXZ
?purgeConfiguration@CCConfiguration@cocos2d@@SAXXZ
?purgeDirector@CCDirector@cocos2d@@IAEXXZ
?purgeFileUtils@CCFileUtils@cocos2d@@SAXXZ
?purgeFontDefDictionary@CCBMFontConfiguration@cocos2d@@AAEXXZ
?purgeKerningDictionary@CCBMFontConfiguration@cocos2d@@AAEXXZ
?purgeNotificationCenter@CCNotificationCenter@cocos2d@@SAXXZ
?purgePoolManager@CCPoolManager@cocos2d@@SAXXZ
?purgeSharedAnimationCache@CCAnimationCache@cocos2d@@SAXXZ
?purgeSharedManager@CCScriptEngineManager@cocos2d@@SAXXZ
?purgeSharedShaderCache@CCShaderCache@cocos2d@@SAXXZ
?purgeSharedSpriteFrameCache@CCSpriteFrameCache@cocos2d@@SAXXZ
?purgeSharedTextureCache@CCTextureCache@cocos2d@@SAXXZ
?purgeSharedUserDefault@CCUserDefault@cocos2d@@SAXXZ
?push@CCPoolManager@cocos2d@@QAEXXZ
?pushScene@CCDirector@cocos2d@@QAE_NPAVCCScene@2@@Z
?randomObject@CCArray@cocos2d@@QAEPAVCCObject@2@XZ
?randomObject@CCDictionary@cocos2d@@QAEPAVCCObject@2@XZ
?reallocateScriptHandler@CCScriptEngineProtocol@cocos2d@@UAEHH@Z
?rearrangeHandlers@CCTouchDispatcher@cocos2d@@IAEXPAVCCArray@2@@Z
?rebuildIndexInOrder@CCSpriteBatchNode@cocos2d@@QAEIPAVCCSprite@2@I@Z
?recreateLabel@CCMenuItemFont@cocos2d@@IAEXXZ
?rect@CCMenuItem@cocos2d@@QAE?AVCCRect@2@XZ
?rectForGID@CCTMXTilesetInfo@cocos2d@@QAE?AVCCRect@2@I@Z
?rectFromString@DS_Dictionary@@AAE_NABV?$basic_string@DU?$char_traits@D@std@@V?$allocator@D@2@@std@@AAVCCRect@cocos2d@@@Z
?reduceMemoryFootprint@CCArray@cocos2d@@QAEXXZ
?refreshTextureRect@CCSprite@cocos2d@@UAEXXZ
?registerScriptAccelerateHandler@CCLayer@cocos2d@@QAEXH@Z
?registerScriptHandler@CCNode@cocos2d@@UAEXH@Z
?registerScriptKeypadHandler@CCLayer@cocos2d@@QAEXH@Z
?registerScriptObserver@CCNotificationCenter@cocos2d@@QAEXPAVCCObject@2@HPBD@Z
?registerScriptTapHandler@CCMenuItem@cocos2d@@UAEXH@Z
?registerScriptTouchHandler@CCLayer@cocos2d@@UAEXH_NH0@Z
?registerWithTouchDispatcher@CCLayer@cocos2d@@UAEXXZ
?registerWithTouchDispatcher@CCMenu@cocos2d@@UAEXXZ
?release@CCObject@cocos2d@@QAEXXZ
?releaseAllTimers@CCProfiler@cocos2d@@QAEXXZ
?releaseCapture@CCEGLView@cocos2d@@QAEXXZ
?releaseData@CCTexture2D@cocos2d@@QAEXPAX@Z
?releaseGLTexture@CCTexture2D@cocos2d@@QAEXXZ
?releaseMap@CCTMXLayer@cocos2d@@QAEXXZ
?releaseMap@CCTileMapAtlas@cocos2d@@QAEXXZ
?releaseTimer@CCProfiler@cocos2d@@QAEXPBD@Z
?reloadAllTextures@CCTextureCache@cocos2d@@SAXXZ
?reloadDefaultShaders@CCShaderCache@cocos2d@@QAEXXZ
?reloadTexture@CCTextureCache@cocos2d@@QAE_NPBD@Z
?remove@CCComponentContainer@cocos2d@@UAE_NPAVCCComponent@2@@Z
?remove@CCComponentContainer@cocos2d@@UAE_NPBD@Z
?removeAction@CCActionManager@cocos2d@@QAEXPAVCCAction@2@@Z
?removeActionAtIndex@CCActionManager@cocos2d@@IAEXIPAU_hashElement@2@@Z
?removeActionByTag@CCActionManager@cocos2d@@QAEXIPAVCCObject@2@@Z
?removeAll@CCComponentContainer@cocos2d@@UAEXXZ
?removeAllActions@CCActionManager@cocos2d@@QAEXXZ
?removeAllActionsFromTarget@CCActionManager@cocos2d@@QAEXPAVCCObject@2@@Z
?removeAllChildren@CCNode@cocos2d@@UAEXXZ
?removeAllChildrenWithCleanup@CCNode@cocos2d@@UAEX_N@Z
?removeAllChildrenWithCleanup@CCParallaxNode@cocos2d@@UAEX_N@Z
?removeAllChildrenWithCleanup@CCParticleBatchNode@cocos2d@@UAEX_N@Z
?removeAllChildrenWithCleanup@CCSprite@cocos2d@@UAEX_N@Z
?removeAllChildrenWithCleanup@CCSpriteBatchNode@cocos2d@@UAEX_N@Z
?removeAllComponents@CCNode@cocos2d@@UAEXXZ
?removeAllDelegates@CCTouchDispatcher@cocos2d@@QAEXXZ
?removeAllKeys@DS_Dictionary@@QAEXXZ
?removeAllObjects@CCArray@cocos2d@@QAEXXZ
?removeAllObjects@CCDictionary@cocos2d@@QAEXXZ
?removeAllObjects@CCSet@cocos2d@@QAEXXZ
?removeAllObservers@CCNotificationCenter@cocos2d@@QAEHPAVCCObject@2@@Z
?removeAllPaths@CCFileUtils@cocos2d@@QAEXXZ
?removeAllQuads@CCTextureAtlas@cocos2d@@QAEXXZ
?removeAllTextures@CCTextureCache@cocos2d@@QAEXXZ
?removeAnimationByName@CCAnimationCache@cocos2d@@QAEXPBD@Z
?removeChild@CCMenu@cocos2d@@UAEXPAVCCNode@2@_N@Z
?removeChild@CCNode@cocos2d@@UAEXPAV12@@Z
?removeChild@CCNode@cocos2d@@UAEXPAV12@_N@Z
?removeChild@CCParallaxNode@cocos2d@@UAEXPAVCCNode@2@_N@Z
?removeChild@CCParticleBatchNode@cocos2d@@UAEXPAVCCNode@2@_N@Z
?removeChild@CCSprite@cocos2d@@UAEXPAVCCNode@2@_N@Z
?removeChild@CCSpriteBatchNode@cocos2d@@UAEXPAVCCNode@2@_N@Z
?removeChild@CCTMXLayer@cocos2d@@UAEXPAVCCNode@2@_N@Z
?removeChildAtIndex@CCParticleBatchNode@cocos2d@@QAEXI_N@Z
?removeChildAtIndex@CCSpriteBatchNode@cocos2d@@QAEXI_N@Z
?removeChildByTag@CCNode@cocos2d@@UAEXH@Z
?removeChildByTag@CCNode@cocos2d@@UAEXH_N@Z
?removeComponent@CCNode@cocos2d@@UAE_NPAVCCComponent@2@@Z
?removeComponent@CCNode@cocos2d@@UAE_NPBD@Z
?removeControlPointAtIndex@CCPointArray@cocos2d@@QAEXI@Z
?removeDelegate@CCIMEDispatcher@cocos2d@@IAEXPAVCCIMEDelegate@2@@Z
?removeDelegate@CCKeyboardDispatcher@cocos2d@@QAEXPAVCCKeyboardDelegate@2@@Z
?removeDelegate@CCKeypadDispatcher@cocos2d@@QAEXPAVCCKeypadDelegate@2@@Z
?removeDelegate@CCMouseDispatcher@cocos2d@@QAEXPAVCCMouseDelegate@2@@Z
?removeDelegate@CCTouchDispatcher@cocos2d@@QAEXPAVCCTouchDelegate@2@@Z
?removeFromParent@CCNode@cocos2d@@UAEXXZ
?removeFromParentAndCleanup@CCNode@cocos2d@@UAEX_N@Z
?removeFullPath@CCFileUtils@cocos2d@@UAEXPBD@Z
?removeHashElement@CCScheduler@cocos2d@@AAEXPAU_hashSelectorEntry@2@@Z
?removeKey@DS_Dictionary@@QAEXI@Z
?removeKey@DS_Dictionary@@QAEXPBD@Z
?removeLastObject@CCArray@cocos2d@@QAEX_N@Z
?removeMeAndCleanup@CCNode@cocos2d@@UAEXXZ
?removeObject@CCArray@cocos2d@@QAEXPAVCCObject@2@_N@Z
?removeObject@CCAutoreleasePool@cocos2d@@QAEXPAVCCObject@2@@Z
?removeObject@CCPoolManager@cocos2d@@QAEXPAVCCObject@2@@Z
?removeObject@CCSet@cocos2d@@QAEXPAVCCObject@2@@Z
?removeObjectAtIndex@CCArray@cocos2d@@QAEXI_N@Z
?removeObjectForElememt@CCDictionary@cocos2d@@QAEXPAVCCDictElement@2@@Z
?removeObjectForKey@CCDictionary@cocos2d@@QAEXABV?$basic_string@DU?$char_traits@D@std@@V?$allocator@D@2@@std@@@Z
?removeObjectForKey@CCDictionary@cocos2d@@QAEXH@Z
?removeObjectsForKeys@CCDictionary@cocos2d@@QAEXPAVCCArray@2@@Z
?removeObjectsInArray@CCArray@cocos2d@@QAEXPAV12@@Z
?removeObserver@CCNotificationCenter@cocos2d@@QAEXPAVCCObject@2@PBD@Z
?removeQuadAtIndex@CCTextureAtlas@cocos2d@@QAEXI@Z
?removeQuadsAtIndex@CCTextureAtlas@cocos2d@@QAEXII@Z
?removeScriptEngine@CCScriptEngineManager@cocos2d@@QAEXXZ
?removeScriptHandler@CCScriptEngineProtocol@cocos2d@@UAEXH@Z
?removeSearchPath@CCFileUtils@cocos2d@@UAEXPBD@Z
?removeSearchPath@CCFileUtilsWin32@cocos2d@@UAEXPBD@Z
?removeSpriteFrameByName@CCSpriteFrameCache@cocos2d@@QAEXPBD@Z
?removeSpriteFrames@CCSpriteFrameCache@cocos2d@@QAEXXZ
?removeSpriteFramesFromDictionary@CCSpriteFrameCache@cocos2d@@AAEXPAVCCDictionary@2@@Z
?removeSpriteFramesFromFile@CCSpriteFrameCache@cocos2d@@QAEXPBD@Z
?removeSpriteFramesFromTexture@CCSpriteFrameCache@cocos2d@@QAEXPAVCCTexture2D@2@@Z
?removeSpriteFromAtlas@CCSpriteBatchNode@cocos2d@@QAEXPAVCCSprite@2@@Z
?removeStatsLabel@CCDirector@cocos2d@@QAEXXZ
?removeTexture@CCTextureCache@cocos2d@@QAEXPAVCCTexture2D@2@@Z
?removeTextureForKey@CCTextureCache@cocos2d@@QAEXPBD@Z
?removeTileAt@CCTMXLayer@cocos2d@@QAEXABVCCPoint@2@@Z
?removeUnusedSpriteFrames@CCSpriteFrameCache@cocos2d@@QAEXXZ
?removeUnusedTextures@CCTextureCache@cocos2d@@QAEXXZ
?removeUpdateFromHash@CCScheduler@cocos2d@@AAEXPAU_listEntry@2@@Z
?render@CCDrawNode@cocos2d@@AAEXXZ
?reorderBatch@CCSpriteBatchNode@cocos2d@@QAEX_N@Z
?reorderChild@CCNode@cocos2d@@UAEXPAV12@H@Z
?reorderChild@CCParticleBatchNode@cocos2d@@UAEXPAVCCNode@2@H@Z
?reorderChild@CCSprite@cocos2d@@UAEXPAVCCNode@2@H@Z
?reorderChild@CCSpriteBatchNode@cocos2d@@UAEXPAVCCNode@2@H@Z
?replaceControlPoint@CCPointArray@cocos2d@@QAEXAAVCCPoint@2@I@Z
?replaceObjectAtIndex@CCArray@cocos2d@@QAEXIPAVCCObject@2@_N@Z
?replaceScene@CCDirector@cocos2d@@QAE_NPAVCCScene@2@@Z
?reset@CCGLProgram@cocos2d@@QAEXXZ
?reset@CCMotionStreak@cocos2d@@QAEXXZ
?reset@xml_document@pugi@@QAEXABV12@@Z
?reset@xml_document@pugi@@QAEXXZ
?resetSmoothFixCounter@CCDirector@cocos2d@@QAEXXZ
?resetSystem@CCParticleSystem@cocos2d@@QAEXXZ
?reshapeProjection@CCDirector@cocos2d@@QAEXABVCCSize@2@@Z
?resizeCapacity@CCTextureAtlas@cocos2d@@QAE_NI@Z
?resizeWindow@CCEGLView@cocos2d@@QAEXHH@Z
?restore@CCCamera@cocos2d@@QAEXXZ
?resume@CCDirector@cocos2d@@QAEXXZ
?resumeSchedulerAndActions@CCNode@cocos2d@@QAEXXZ
?resumeStroke@CCMotionStreak@cocos2d@@QAEXXZ
?resumeSystem@CCParticleSystem@cocos2d@@QAEXXZ
?resumeTarget@CCActionManager@cocos2d@@QAEXPAVCCObject@2@@Z
?resumeTarget@CCScheduler@cocos2d@@QAEXPAVCCObject@2@@Z
?resumeTargets@CCActionManager@cocos2d@@QAEXPAVCCSet@2@@Z
?resumeTargets@CCScheduler@cocos2d@@QAEXPAVCCSet@2@@Z
?retain@CCObject@cocos2d@@QAEXXZ
?retainCount@CCObject@cocos2d@@QBEIXZ
?reuse@CCGrid3D@cocos2d@@UAEXXZ
?reuse@CCGridBase@cocos2d@@UAEXXZ
?reuse@CCTiledGrid3D@cocos2d@@UAEXXZ
?reusedTileWithRect@CCTMXLayer@cocos2d@@AAEPAVCCSprite@2@VCCRect@2@@Z
?reverse@CCAccelAmplitude@cocos2d@@UAEPAVCCActionInterval@2@XZ
?reverse@CCAccelDeccelAmplitude@cocos2d@@UAEPAVCCActionInterval@2@XZ
?reverse@CCActionCamera@cocos2d@@UAEPAVCCActionInterval@2@XZ
?reverse@CCActionEase@cocos2d@@UAEPAVCCActionInterval@2@XZ
?reverse@CCActionInstant@cocos2d@@UAEPAVCCFiniteTimeAction@2@XZ
?reverse@CCActionInterval@cocos2d@@UAEPAV12@XZ
?reverse@CCActionTween@cocos2d@@UAEPAVCCActionInterval@2@XZ
?reverse@CCAnimate@cocos2d@@UAEPAVCCActionInterval@2@XZ
?reverse@CCBezierBy@cocos2d@@UAEPAVCCActionInterval@2@XZ
?reverse@CCBlink@cocos2d@@UAEPAVCCActionInterval@2@XZ
?reverse@CCCardinalSplineBy@cocos2d@@UAEPAVCCActionInterval@2@XZ
?reverse@CCCardinalSplineTo@cocos2d@@UAEPAVCCActionInterval@2@XZ
?reverse@CCDeccelAmplitude@cocos2d@@UAEPAVCCActionInterval@2@XZ
?reverse@CCDelayTime@cocos2d@@UAEPAVCCActionInterval@2@XZ
?reverse@CCEaseBackIn@cocos2d@@UAEPAVCCActionInterval@2@XZ
?reverse@CCEaseBackInOut@cocos2d@@UAEPAVCCActionInterval@2@XZ
?reverse@CCEaseBackOut@cocos2d@@UAEPAVCCActionInterval@2@XZ
?reverse@CCEaseBounce@cocos2d@@UAEPAVCCActionInterval@2@XZ
?reverse@CCEaseBounceIn@cocos2d@@UAEPAVCCActionInterval@2@XZ
?reverse@CCEaseBounceInOut@cocos2d@@UAEPAVCCActionInterval@2@XZ
?reverse@CCEaseBounceOut@cocos2d@@UAEPAVCCActionInterval@2@XZ
?reverse@CCEaseElastic@cocos2d@@UAEPAVCCActionInterval@2@XZ
?reverse@CCEaseElasticIn@cocos2d@@UAEPAVCCActionInterval@2@XZ
?reverse@CCEaseElasticInOut@cocos2d@@UAEPAVCCActionInterval@2@XZ
?reverse@CCEaseElasticOut@cocos2d@@UAEPAVCCActionInterval@2@XZ
?reverse@CCEaseExponentialIn@cocos2d@@UAEPAVCCActionInterval@2@XZ
?reverse@CCEaseExponentialInOut@cocos2d@@UAEPAVCCActionInterval@2@XZ
?reverse@CCEaseExponentialOut@cocos2d@@UAEPAVCCActionInterval@2@XZ
?reverse@CCEaseIn@cocos2d@@UAEPAVCCActionInterval@2@XZ
?reverse@CCEaseInOut@cocos2d@@UAEPAVCCActionInterval@2@XZ
?reverse@CCEaseOut@cocos2d@@UAEPAVCCActionInterval@2@XZ
?reverse@CCEaseRateAction@cocos2d@@UAEPAVCCActionInterval@2@XZ
?reverse@CCEaseSineIn@cocos2d@@UAEPAVCCActionInterval@2@XZ
?reverse@CCEaseSineInOut@cocos2d@@UAEPAVCCActionInterval@2@XZ
?reverse@CCEaseSineOut@cocos2d@@UAEPAVCCActionInterval@2@XZ
?reverse@CCFadeIn@cocos2d@@UAEPAVCCActionInterval@2@XZ
?reverse@CCFadeOut@cocos2d@@UAEPAVCCActionInterval@2@XZ
?reverse@CCFiniteTimeAction@cocos2d@@UAEPAV12@XZ
?reverse@CCFlipX@cocos2d@@UAEPAVCCFiniteTimeAction@2@XZ
?reverse@CCFlipY@cocos2d@@UAEPAVCCFiniteTimeAction@2@XZ
?reverse@CCGridAction@cocos2d@@UAEPAVCCActionInterval@2@XZ
?reverse@CCHide@cocos2d@@UAEPAVCCFiniteTimeAction@2@XZ
?reverse@CCJumpBy@cocos2d@@UAEPAVCCActionInterval@2@XZ
?reverse@CCMoveBy@cocos2d@@UAEPAVCCActionInterval@2@XZ
?reverse@CCPointArray@cocos2d@@QAEPAV12@XZ
?reverse@CCProgressFromTo@cocos2d@@UAEPAVCCActionInterval@2@XZ
?reverse@CCRemoveSelf@cocos2d@@UAEPAVCCFiniteTimeAction@2@XZ
?reverse@CCRepeat@cocos2d@@UAEPAVCCActionInterval@2@XZ
?reverse@CCRepeatForever@cocos2d@@UAEPAVCCActionInterval@2@XZ
?reverse@CCReverseTime@cocos2d@@UAEPAVCCActionInterval@2@XZ
?reverse@CCRotateBy@cocos2d@@UAEPAVCCActionInterval@2@XZ
?reverse@CCScaleBy@cocos2d@@UAEPAVCCActionInterval@2@XZ
?reverse@CCSequence@cocos2d@@UAEPAVCCActionInterval@2@XZ
?reverse@CCShow@cocos2d@@UAEPAVCCFiniteTimeAction@2@XZ
?reverse@CCSkewBy@cocos2d@@UAEPAVCCActionInterval@2@XZ
?reverse@CCSpawn@cocos2d@@UAEPAVCCActionInterval@2@XZ
?reverse@CCSpeed@cocos2d@@UAEPAVCCActionInterval@2@XZ
?reverse@CCTintBy@cocos2d@@UAEPAVCCActionInterval@2@XZ
?reverseInline@CCPointArray@cocos2d@@QAEXXZ
?reverseObjects@CCArray@cocos2d@@QAEXXZ
?rightKeyDown@CCMouseDelegate@cocos2d@@UAEXXZ
?rightKeyUp@CCMouseDelegate@cocos2d@@UAEXXZ
?rotate@CCPoint@cocos2d@@QBE?AV12@ABV12@@Z
?rotateByAngle@CCPoint@cocos2d@@QBE?AV12@ABV12@M@Z
?run@CCApplication@cocos2d@@UAEHXZ
?runAction@CCNode@cocos2d@@QAEPAVCCAction@2@PAV32@@Z
?runWithScene@CCDirector@cocos2d@@QAEXPAVCCScene@2@@Z
?s_bEncryptionKeyIsValid@ZipUtils@cocos2d@@0_NA
?s_gSharedConfiguration@CCConfiguration@cocos2d@@0PAV12@A
?s_pSharedAnimationCache@CCAnimationCache@cocos2d@@0PAV12@A
?s_sharedFileUtils@CCFileUtils@cocos2d@@1PAV12@A
?s_uEncryptedPvrKeyParts@ZipUtils@cocos2d@@0PAIA
?s_uEncryptionKey@ZipUtils@cocos2d@@0PAIA
?save@xml_document@pugi@@QBEXAAV?$basic_ostream@DU?$char_traits@D@std@@@std@@PBDIW4xml_encoding@2@@Z
?save@xml_document@pugi@@QBEXAAV?$basic_ostream@_WU?$char_traits@_W@std@@@std@@PBDI@Z
?save@xml_document@pugi@@QBEXAAVxml_writer@2@PBDIW4xml_encoding@2@@Z
?saveDefaults@CCParticleSystem@cocos2d@@QAEXXZ
?saveRootSubDictToCompressedFile@DS_Dictionary@@QAE_NPBD@Z
?saveRootSubDictToFile@DS_Dictionary@@QAE_NPBD@Z
?saveRootSubDictToString@DS_Dictionary@@QAE?AV?$basic_string@DU?$char_traits@D@std@@V?$allocator@D@2@@std@@XZ
?saveToFile@CCImage@cocos2d@@QAE_NPBD_N@Z
?saveToFile@CCRenderTexture@cocos2d@@QAE_NPBD@Z
?saveToFile@CCRenderTexture@cocos2d@@QAE_NPBDW4eImageFormat@2@@Z
?save_file@xml_document@pugi@@QBE_NPBD0IW4xml_encoding@2@@Z
?save_file@xml_document@pugi@@QBE_NPB_WPBDIW4xml_encoding@2@@Z
?save_string@xml_document@pugi@@QBE?AV?$basic_string@DU?$char_traits@D@std@@V?$allocator@D@2@@std@@PBDIW4xml_encoding@2@@Z
?sceneCount@CCDirector@cocos2d@@QAEHXZ
?sceneOrder@CCTransitionFadeTR@cocos2d@@MAEXXZ
?sceneOrder@CCTransitionPageTurn@cocos2d@@MAEXXZ
?sceneOrder@CCTransitionProgress@cocos2d@@MAEXXZ
?sceneOrder@CCTransitionProgressInOut@cocos2d@@MAEXXZ
?sceneOrder@CCTransitionScene@cocos2d@@MAEXXZ
?sceneOrder@CCTransitionSlideInB@cocos2d@@MAEXXZ
?sceneOrder@CCTransitionSlideInL@cocos2d@@MAEXXZ
?sceneOrder@CCTransitionSlideInR@cocos2d@@MAEXXZ
?sceneOrder@CCTransitionSlideInT@cocos2d@@MAEXXZ
?sceneOrder@CCTransitionTurnOffTiles@cocos2d@@MAEXXZ
?sceneWillResume@CCSceneTransitionDelegate@cocos2d@@UAEXXZ
?schedule@CCNode@cocos2d@@QAEXP8CCObject@2@AEXM@Z@Z
?schedule@CCNode@cocos2d@@QAEXP8CCObject@2@AEXM@ZM@Z
?schedule@CCNode@cocos2d@@QAEXP8CCObject@2@AEXM@ZMIM@Z
?scheduleOnce@CCNode@cocos2d@@QAEXP8CCObject@2@AEXM@ZM@Z
?scheduleScriptFunc@CCScheduler@cocos2d@@QAEIIM_N@Z
?scheduleSelector@CCScheduler@cocos2d@@QAEXP8CCObject@2@AEXM@ZPAV32@MIM_N@Z
?scheduleSelector@CCScheduler@cocos2d@@QAEXP8CCObject@2@AEXM@ZPAV32@M_N@Z
?scheduleUpdate@CCNode@cocos2d@@QAEXXZ
?scheduleUpdateForTarget@CCScheduler@cocos2d@@QAEXPAVCCObject@2@H_N@Z
?scheduleUpdateWithPriority@CCNode@cocos2d@@QAEXH@Z
?scheduleUpdateWithPriorityLua@CCNode@cocos2d@@QAEXHH@Z
?scrollWheel@CCMouseDelegate@cocos2d@@UAEXMM@Z
?searchNewPositionInChildrenForZ@CCParticleBatchNode@cocos2d@@AAEIH@Z
?selected@CCMenuItem@cocos2d@@UAEXXZ
?selected@CCMenuItemLabel@cocos2d@@UAEXXZ
?selected@CCMenuItemSprite@cocos2d@@UAEXXZ
?selected@CCMenuItemToggle@cocos2d@@UAEXXZ
?selectedItem@CCMenuItemToggle@cocos2d@@QAEPAVCCMenuItem@2@XZ
?serialize@CCComponent@cocos2d@@UAE_NPAX@Z
?set2DProjection@CCGridBase@cocos2d@@QAEXXZ
?setAccelerometer@CCDirector@cocos2d@@UAEXPAVCCAccelerometer@2@@Z
?setAccelerometerEnabled@CCLayer@cocos2d@@UAEX_N@Z
?setAccelerometerInterval@CCAccelerometer@cocos2d@@QAEXM@Z
?setAccelerometerInterval@CCLayer@cocos2d@@UAEXN@Z
?setActionManager@CCDirector@cocos2d@@UAEXPAVCCActionManager@2@@Z
?setActionManager@CCNode@cocos2d@@UAEXPAVCCActionManager@2@@Z
?setActive@CCGridBase@cocos2d@@QAEX_N@Z
?setActualDeltaTime@CCDirector@cocos2d@@QAEXM@Z
?setAdditionalTransform@CCNode@cocos2d@@QAEXABUCCAffineTransform@2@@Z
?setAliasTexParameters@CCTexture2D@cocos2d@@QAEXXZ
?setAlignment@CCLabelBMFont@cocos2d@@UAEXW4CCTextAlignment@2@@Z
?setAlphaBlending@CCDirector@cocos2d@@QAEX_N@Z
?setAlphaThreshold@CCClippingNode@cocos2d@@QAEXM@Z
?setAmplitude@CCJumpTiles3D@cocos2d@@QAEXM@Z
?setAmplitude@CCLiquid@cocos2d@@QAEXM@Z
?setAmplitude@CCRipple3D@cocos2d@@QAEXM@Z
?setAmplitude@CCTwirl@cocos2d@@QAEXM@Z
?setAmplitude@CCWaves3D@cocos2d@@QAEXM@Z
?setAmplitude@CCWaves@cocos2d@@QAEXM@Z
?setAmplitude@CCWavesTiles3D@cocos2d@@QAEXM@Z
?setAmplitudeRate@CCActionInterval@cocos2d@@QAEXM@Z
?setAmplitudeRate@CCJumpTiles3D@cocos2d@@QAEXM@Z
?setAmplitudeRate@CCLiquid@cocos2d@@QAEXM@Z
?setAmplitudeRate@CCRipple3D@cocos2d@@QAEXM@Z
?setAmplitudeRate@CCTwirl@cocos2d@@QAEXM@Z
?setAmplitudeRate@CCWaves3D@cocos2d@@QAEXM@Z
?setAmplitudeRate@CCWaves@cocos2d@@QAEXM@Z
?setAmplitudeRate@CCWavesTiles3D@cocos2d@@QAEXM@Z
?setAnchorPoint@CCLabelBMFont@cocos2d@@UAEXABVCCPoint@2@@Z
?setAnchorPoint@CCNode@cocos2d@@UAEXABVCCPoint@2@@Z
?setAnchorPoint@CCProgressTimer@cocos2d@@QAEXVCCPoint@2@@Z
?setAnchorPoint@CCSprite@cocos2d@@UAEXABVCCPoint@2@@Z
?setAndroidPath@CCFileUtils@cocos2d@@QAEXV?$basic_string@DU?$char_traits@D@std@@V?$allocator@D@2@@std@@@Z
?setAngle@CCParticleSystem@cocos2d@@UAEXM@Z
?setAngleVar@CCParticleSystem@cocos2d@@UAEXM@Z
?setAnimation@CCAnimate@cocos2d@@QAEXPAVCCAnimation@2@@Z
?setAnimationInterval@CCApplication@cocos2d@@UAEXN@Z
?setAntiAliasTexParameters@CCTexture2D@cocos2d@@QAEXXZ
?setArrayForKey@DS_Dictionary@@QAEXPBDPAVCCArray@cocos2d@@@Z
?setAtlasIndex@CCParticleSystem@cocos2d@@QAEXI@Z
?setAtlasIndex@CCSprite@cocos2d@@QAEXI@Z
?setAtlasName@CCBMFontConfiguration@cocos2d@@QAEXPBD@Z
?setAutoDraw@CCRenderTexture@cocos2d@@QAEX_N@Z
?setAutoRemoveOnFinish@CCParticleSystem@cocos2d@@UAEX_N@Z
?setBarChangeRate@CCProgressTimer@cocos2d@@QAEXVCCPoint@2@@Z
?setBatchNode@CCParticleSystem@cocos2d@@UAEXPAVCCParticleBatchNode@2@@Z
?setBatchNode@CCParticleSystemQuad@cocos2d@@UAEXPAVCCParticleBatchNode@2@@Z
?setBatchNode@CCSprite@cocos2d@@UAEXPAVCCSpriteBatchNode@2@@Z
?setBlVertexMod@CCSprite@cocos2d@@QAEXM@Z
?setBlendAdditive@CCParticleSystem@cocos2d@@UAEX_N@Z
?setBlendFunc@CCAtlasNode@cocos2d@@UAEXU_ccBlendFunc@2@@Z
?setBlendFunc@CCDrawNode@cocos2d@@QAEXABU_ccBlendFunc@2@@Z
?setBlendFunc@CCLayerColor@cocos2d@@UAEXU_ccBlendFunc@2@@Z
?setBlendFunc@CCMotionStreak@cocos2d@@UAEXU_ccBlendFunc@2@@Z
?setBlendFunc@CCParticleBatchNode@cocos2d@@UAEXU_ccBlendFunc@2@@Z
?setBlendFunc@CCParticleSystem@cocos2d@@UAEXU_ccBlendFunc@2@@Z
?setBlendFunc@CCSprite@cocos2d@@UAEXU_ccBlendFunc@2@@Z
?setBlendFunc@CCSpriteBatchNode@cocos2d@@UAEXU_ccBlendFunc@2@@Z
?setBoolForKey@CCUserDefault@cocos2d@@QAEXPBD_N@Z
?setBoolForKey@DS_Dictionary@@QAEXPBD_N1@Z
?setBoolForKey@DS_Dictionary@@QAEXPBD_N@Z
?setBoolMapForKey@DS_Dictionary@@QAEXPBDAAV?$map@V?$basic_string@DU?$char_traits@D@std@@V?$allocator@D@2@@std@@_NU?$less@V?$basic_string@DU?$char_traits@D@std@@V?$allocator@D@2@@std@@@2@V?$allocator@U?$pair@$$CBV?$basic_string@DU?$char_traits@D@std@@V?$allocator@D@2@@std@@_N@std@@@2@@std@@@Z
?setBoudarySet@CCFollow@cocos2d@@QAEX_N@Z
?setBrVertexMod@CCSprite@cocos2d@@QAEXM@Z
?setCString@CCLabelBMFont@cocos2d@@UAEXPBD@Z
?setCascadeColorEnabled@CCLabelBMFont@cocos2d@@UAEX_N@Z
?setCascadeColorEnabled@CCLayerRGBA@cocos2d@@UAEX_N@Z
?setCascadeColorEnabled@CCNodeRGBA@cocos2d@@UAEX_N@Z
?setCascadeOpacityEnabled@CCLabelBMFont@cocos2d@@UAEX_N@Z
?setCascadeOpacityEnabled@CCLayerRGBA@cocos2d@@UAEX_N@Z
?setCascadeOpacityEnabled@CCNodeRGBA@cocos2d@@UAEX_N@Z
?setCenterXYZ@CCCamera@cocos2d@@QAEXMMM@Z
?setChildColor@CCSprite@cocos2d@@UAEXABU_ccColor3B@2@@Z
?setChildOpacity@CCSprite@cocos2d@@UAEXE@Z
?setClearColor@CCRenderTexture@cocos2d@@QAEXABU_ccColor4F@2@@Z
?setClearDepth@CCRenderTexture@cocos2d@@QAEXM@Z
?setClearFlags@CCRenderTexture@cocos2d@@QAEXI@Z
?setClearStencil@CCRenderTexture@cocos2d@@QAEXM@Z
?setColor@CCAtlasNode@cocos2d@@UAEXABU_ccColor3B@2@@Z
?setColor@CCLabelBMFont@cocos2d@@UAEXABU_ccColor3B@2@@Z
?setColor@CCLayerColor@cocos2d@@UAEXABU_ccColor3B@2@@Z
?setColor@CCLayerRGBA@cocos2d@@UAEXABU_ccColor3B@2@@Z
?setColor@CCNodeRGBA@cocos2d@@UAEXABU_ccColor3B@2@@Z
?setColor@CCProgressTimer@cocos2d@@UAEXABU_ccColor3B@2@@Z
?setColor@CCSprite@cocos2d@@UAEXABU_ccColor3B@2@@Z
?setColorSpaceHolder@CCTextFieldTTF@cocos2d@@UAEXABU_ccColor3B@2@@Z
?setCompressedInterpolation@CCLayerGradient@cocos2d@@UAEX_N@Z
?setConcave@CCLens3D@cocos2d@@QAEX_N@Z
?setContentScaleFactor@CCDirector@cocos2d@@QAEXM@Z
?setContentSize@CCLayerColor@cocos2d@@UAEXABVCCSize@2@@Z
?setContentSize@CCNode@cocos2d@@UAEXABVCCSize@2@@Z
?setControlPoints@CCPointArray@cocos2d@@QAEXPAV?$vector@PAVCCPoint@cocos2d@@V?$allocator@PAVCCPoint@cocos2d@@@std@@@std@@@Z
?setCurrentString@CCTMXMapInfo@cocos2d@@QAEXPBD@Z
?setDefaultAlphaPixelFormat@CCTexture2D@cocos2d@@SAXW4CCTexture2DPixelFormat@2@@Z
?setDefaultValues@CCDirector@cocos2d@@QAEXXZ
?setDelayPerUnit@CCAnimation@cocos2d@@QAEXM@Z
?setDelayUnits@CCAnimationFrame@cocos2d@@QAEXM@Z
?setDelegate@CCAccelerometer@cocos2d@@QAEXPAVCCAccelerometerDelegate@2@@Z
?setDelegate@CCDirector@cocos2d@@QAEXPAVCCDirectorDelegate@2@@Z
?setDelegate@CCKeyboardHandler@cocos2d@@QAEXPAVCCKeyboardDelegate@2@@Z
?setDelegate@CCKeypadHandler@cocos2d@@QAEXPAVCCKeypadDelegate@2@@Z
?setDelegate@CCMouseHandler@cocos2d@@QAEXPAVCCMouseDelegate@2@@Z
?setDelegate@CCTextFieldTTF@cocos2d@@QAEXPAVCCTextFieldDelegate@2@@Z
?setDelegate@CCTouchHandler@cocos2d@@QAEXPAVCCTouchDelegate@2@@Z
?setDelegate@ObjectDecoder@@QAEXPAVObjectDecoderDelegate@@@Z
?setDelegator@CCSAXParser@cocos2d@@QAEXPAVCCSAXDelegator@2@@Z
?setDeltaTime@CCDirector@cocos2d@@QAEXM@Z
?setDepthTest@CCDirector@cocos2d@@QAEX_N@Z
?setDesignResolutionSize@CCEGLViewProtocol@cocos2d@@UAEXMMW4ResolutionPolicy@@@Z
?setDictForKey@DS_Dictionary@@QAEXPBDPAVCCDictionary@cocos2d@@@Z
?setDimensions@CCLabelTTF@cocos2d@@QAEXABVCCSize@2@@Z
?setDirty@CCCamera@cocos2d@@QAEX_N@Z
?setDirty@CCSprite@cocos2d@@UAEX_N@Z
?setDirty@CCTextureAtlas@cocos2d@@QAEX_N@Z
?setDirtyRecursively@CCSprite@cocos2d@@MAEX_N@Z
?setDisabledColor@CCMenuItemLabel@cocos2d@@UAEXABU_ccColor3B@2@@Z
?setDisabledImage@CCMenuItemSprite@cocos2d@@UAEXPAVCCNode@2@@Z
?setDisabledSpriteFrame@CCMenuItemImage@cocos2d@@QAEXPAVCCSpriteFrame@2@@Z
?setDispatchEvents@CCTouchDispatcher@cocos2d@@QAEX_N@Z
?setDisplayFrame@CCParticleSystemQuad@cocos2d@@QAEXPAVCCSpriteFrame@2@@Z
?setDisplayFrame@CCSprite@cocos2d@@UAEXPAVCCSpriteFrame@2@@Z
?setDisplayFrameWithAnimationName@CCSprite@cocos2d@@UAEXPBDH@Z
?setDisplayStats@CCDirector@cocos2d@@QAEX_N@Z
?setDontCallWillSwitch@CCDirector@cocos2d@@QAEX_N@Z
?setDontDraw@CCSprite@cocos2d@@QAEX_N@Z
?setDontOpacityFade@CCMotionStreak@cocos2d@@QAEX_N@Z
?setDoubleForKey@CCUserDefault@cocos2d@@QAEXPBDN@Z
?setDuration@CCFiniteTimeAction@cocos2d@@QAEXM@Z
?setDuration@CCParticleSystem@cocos2d@@UAEXM@Z
?setEmissionRate@CCParticleSystem@cocos2d@@UAEXM@Z
?setEmitterMode@CCParticleSystem@cocos2d@@UAEXH@Z
?setEnabled@CCComponent@cocos2d@@UAEX_N@Z
?setEnabled@CCMenu@cocos2d@@UAEX_N@Z
?setEnabled@CCMenuItem@cocos2d@@UAEX_N@Z
?setEnabled@CCMenuItemLabel@cocos2d@@UAEX_N@Z
?setEnabled@CCMenuItemSprite@cocos2d@@UAEX_N@Z
?setEnabled@CCMenuItemToggle@cocos2d@@UAEX_N@Z
?setEnalbedSelectors@CCTouchHandler@cocos2d@@QAEXH@Z
?setEndColor@CCLayerGradient@cocos2d@@UAEXABU_ccColor3B@2@@Z
?setEndColor@CCParticleSystem@cocos2d@@UAEXABU_ccColor4F@2@@Z
?setEndColorVar@CCParticleSystem@cocos2d@@UAEXABU_ccColor4F@2@@Z
?setEndOpacity@CCLayerGradient@cocos2d@@UAEXE@Z
?setEndRadius@CCParticleSystem@cocos2d@@UAEXM@Z
?setEndRadiusVar@CCParticleSystem@cocos2d@@UAEXM@Z
?setEndSize@CCParticleSystem@cocos2d@@UAEXM@Z
?setEndSizeVar@CCParticleSystem@cocos2d@@UAEXM@Z
?setEndSpin@CCParticleSystem@cocos2d@@UAEXM@Z
?setEndSpinVar@CCParticleSystem@cocos2d@@UAEXM@Z
?setEyeXYZ@CCCamera@cocos2d@@QAEXMMM@Z
?setFastMode@CCMotionStreak@cocos2d@@QAEX_N@Z
?setFilenameLookupDictionary@CCFileUtils@cocos2d@@UAEXPAVCCDictionary@2@@Z
?setFlipX@CCSprite@cocos2d@@QAEX_N@Z
?setFlipY@CCSprite@cocos2d@@QAEX_N@Z
?setFloatForKey@CCUserDefault@cocos2d@@QAEXPBDM@Z
?setFloatForKey@DS_Dictionary@@QAEXPBDM@Z
?setFloatForKey@DS_Dictionary@@QAEXPBDM_N@Z
?setFntFile@CCLabelBMFont@cocos2d@@QAEXPBD@Z
?setFontFillColor@CCLabelTTF@cocos2d@@QAEXABU_ccColor3B@2@_N@Z
?setFontName@CCLabelTTF@cocos2d@@QAEXPBD@Z
?setFontName@CCMenuItemFont@cocos2d@@SAXPBD@Z
?setFontNameObj@CCMenuItemFont@cocos2d@@QAEXPBD@Z
?setFontSize@CCLabelTTF@cocos2d@@QAEXM@Z
?setFontSize@CCMenuItemFont@cocos2d@@SAXI@Z
?setFontSizeObj@CCMenuItemFont@cocos2d@@QAEXI@Z
?setForcePrio@CCTouchDispatcher@cocos2d@@QAEX_N@Z
?setForceSmoothFix@CCDirector@cocos2d@@QAEX_N@Z
?setForceTimer@CCApplication@cocos2d@@QAEX_N@Z
?setForcedTarget@CCTargetedAction@cocos2d@@QAEXPAVCCNode@2@@Z
?setFrameName@CCSpriteFrame@cocos2d@@QAEXV?$basic_string@DU?$char_traits@D@std@@V?$allocator@D@2@@std@@@Z
?setFrameSize@CCEGLView@cocos2d@@UAEXMM@Z
?setFrameSize@CCEGLViewProtocol@cocos2d@@UAEXMM@Z
?setFrameZoomFactor@CCEGLView@cocos2d@@QAEXM@Z
?setFrames@CCAnimation@cocos2d@@QAEXPAVCCArray@2@@Z
?setFullscreen@CCApplication@cocos2d@@QAEX_N@Z
?setGLDefaultValues@CCDirector@cocos2d@@QAEXXZ
?setGLServerState@CCNode@cocos2d@@UAEXW4ccGLServerState@2@@Z
?setGravity@CCParticleSystem@cocos2d@@UAEXABVCCPoint@2@@Z
?setGrid@CCNode@cocos2d@@UAEXPAVCCGridBase@2@@Z
?setGridSize@CCGridBase@cocos2d@@QAEXABVCCSize@2@@Z
?setGroupName@CCTMXObjectGroup@cocos2d@@QAEXPBD@Z
?setHandler@CCNotificationObserver@cocos2d@@UAEXH@Z
?setHandlerPriority@CCMenu@cocos2d@@QAEXH@Z
?setHorizontalAlignment@CCLabelTTF@cocos2d@@QAEXW4CCTextAlignment@2@@Z
?setIMEKeyboardState@CCEGLView@cocos2d@@UAEX_N@Z
?setIgnoreContentScaleFactor@CCAtlasNode@cocos2d@@AAEX_N@Z
?setIndentLevel@CCPrettyPrinter@cocos2d@@AAEXH@Z
?setInnerAction@CCRepeat@cocos2d@@QAEXPAVCCFiniteTimeAction@2@@Z
?setInnerAction@CCRepeatForever@cocos2d@@QAEXPAVCCActionInterval@2@@Z
?setInnerAction@CCSpeed@cocos2d@@QAEXPAVCCActionInterval@2@@Z
?setIntegerForKey@CCUserDefault@cocos2d@@QAEXPBDH@Z
?setIntegerForKey@DS_Dictionary@@QAEXPBDH@Z
?setIntegerForKey@DS_Dictionary@@QAEXPBDH_N@Z
?setInterval@CCTimer@cocos2d@@QAEXM@Z
?setInverted@CCClippingNode@cocos2d@@QAEX_N@Z
?setIsBatched@CCLabelBMFont@cocos2d@@QAEX_N@Z
?setKeyboardDispatcher@CCDirector@cocos2d@@UAEXPAVCCKeyboardDispatcher@2@@Z
?setKeyboardEnabled@CCLayer@cocos2d@@UAEX_N@Z
?setKeypadDispatcher@CCDirector@cocos2d@@UAEXPAVCCKeypadDispatcher@2@@Z
?setKeypadEnabled@CCLayer@cocos2d@@UAEX_N@Z
?setLabel@CCMenuItemLabel@cocos2d@@UAEXPAVCCNode@2@@Z
?setLayerAttribs@CCTMXMapInfo@cocos2d@@QAEXH@Z
?setLayerName@CCTMXLayer@cocos2d@@QAEXPBD@Z
?setLayerOrientation@CCTMXLayer@cocos2d@@QAEXI@Z
?setLayerSize@CCTMXLayer@cocos2d@@QAEXABVCCSize@2@@Z
?setLayers@CCTMXMapInfo@cocos2d@@UAEXPAVCCArray@2@@Z
?setLensEffect@CCLens3D@cocos2d@@QAEXM@Z
?setLife@CCParticleSystem@cocos2d@@UAEXM@Z
?setLifeVar@CCParticleSystem@cocos2d@@UAEXM@Z
?setLineBreakWithoutSpace@CCLabelBMFont@cocos2d@@UAEX_N@Z
?setLoops@CCAnimation@cocos2d@@QAEXI@Z
?setM_fMaxSeg@CCMotionStreak@cocos2d@@QAEXM@Z
?setManualSortChildren@CCSpriteBatchNode@cocos2d@@QAEX_N@Z
?setMapOrientation@CCTMXTiledMap@cocos2d@@QAEXH@Z
?setMapSize@CCTMXMapInfo@cocos2d@@QAEXABVCCSize@2@@Z
?setMapSize@CCTMXTiledMap@cocos2d@@QAEXABVCCSize@2@@Z
?setMapTileSize@CCTMXLayer@cocos2d@@QAEXABVCCSize@2@@Z
?setMaxS@CCTexture2D@cocos2d@@UAEXM@Z
?setMaxT@CCTexture2D@cocos2d@@UAEXM@Z
?setMidpoint@CCProgressTimer@cocos2d@@UAEXVCCPoint@2@@Z
?setMouseDispatcher@CCDirector@cocos2d@@UAEXPAVCCMouseDispatcher@2@@Z
?setMouseEnabled@CCLayer@cocos2d@@UAEX_N@Z
?setName@CCComponent@cocos2d@@QAEXPBD@Z
?setNewScene@CCTransitionScene@cocos2d@@AAEXM@Z
?setNextDeltaTimeZero@CCDirector@cocos2d@@QAEX_N@Z
?setNextScene@CCDirector@cocos2d@@IAEXXZ
?setNormalImage@CCMenuItemSprite@cocos2d@@UAEXPAVCCNode@2@@Z
?setNormalSpriteFrame@CCMenuItemImage@cocos2d@@QAEXPAVCCSpriteFrame@2@@Z
?setNotificationNode@CCDirector@cocos2d@@QAEXPAVCCNode@2@@Z
?setObjType@CCObject@cocos2d@@QAEXW4CCObjectType@2@@Z
?setObject@CCCallFuncO@cocos2d@@QAEXPAVCCObject@2@@Z
?setObject@CCConfiguration@cocos2d@@QAEXPBDPAVCCObject@2@@Z
?setObject@CCDictionary@cocos2d@@QAEXPAVCCObject@2@ABV?$basic_string@DU?$char_traits@D@std@@V?$allocator@D@2@@std@@@Z
?setObject@CCDictionary@cocos2d@@QAEXPAVCCObject@2@H@Z
?setObjectForKey@DS_Dictionary@@QAEXPBDPAVCCObject@cocos2d@@@Z
?setObjectGroups@CCTMXMapInfo@cocos2d@@UAEXPAVCCArray@2@@Z
?setObjectGroups@CCTMXTiledMap@cocos2d@@UAEXPAVCCArray@2@@Z
?setObjectUnSafe@CCDictionary@cocos2d@@AAEXPAVCCObject@2@ABV?$basic_string@DU?$char_traits@D@std@@V?$allocator@D@2@@std@@@Z
?setObjectUnSafe@CCDictionary@cocos2d@@AAEXPAVCCObject@2@H@Z
?setObjects@CCTMXObjectGroup@cocos2d@@UAEXPAVCCArray@2@@Z
?setOffset@CCSpriteFrame@cocos2d@@QAEXABVCCPoint@2@@Z
?setOffsetInPixels@CCSpriteFrame@cocos2d@@QAEXABVCCPoint@2@@Z
?setOpacity@CCAtlasNode@cocos2d@@UAEXE@Z
?setOpacity@CCLabelBMFont@cocos2d@@UAEXE@Z
?setOpacity@CCLayerColor@cocos2d@@UAEXE@Z
?setOpacity@CCLayerRGBA@cocos2d@@UAEXE@Z
?setOpacity@CCMotionStreak@cocos2d@@UAEXE@Z
?setOpacity@CCNodeRGBA@cocos2d@@UAEXE@Z
?setOpacity@CCProgressTimer@cocos2d@@UAEXE@Z
?setOpacity@CCSprite@cocos2d@@UAEXE@Z
?setOpacityModifyRGB@CCAtlasNode@cocos2d@@UAEX_N@Z
?setOpacityModifyRGB@CCLabelBMFont@cocos2d@@UAEX_N@Z
?setOpacityModifyRGB@CCLayerRGBA@cocos2d@@UAEX_N@Z
?setOpacityModifyRGB@CCMenu@cocos2d@@UAEX_N@Z
?setOpacityModifyRGB@CCMotionStreak@cocos2d@@UAEX_N@Z
?setOpacityModifyRGB@CCNodeRGBA@cocos2d@@UAEX_N@Z
?setOpacityModifyRGB@CCParticleSystem@cocos2d@@UAEX_N@Z
?setOpacityModifyRGB@CCSprite@cocos2d@@UAEX_N@Z
?setOpenGLView@CCDirector@cocos2d@@QAEXPAVCCEGLView@2@@Z
?setOrderOfArrival@CCNode@cocos2d@@UAEXI@Z
?setOrientation@CCTMXMapInfo@cocos2d@@QAEXH@Z
?setOriginalSize@CCSpriteFrame@cocos2d@@QAEXABVCCSize@2@@Z
?setOriginalSizeInPixels@CCSpriteFrame@cocos2d@@QAEXABVCCSize@2@@Z
?setOriginalTarget@CCAction@cocos2d@@QAEXPAVCCNode@2@@Z
?setOwner@CCComponent@cocos2d@@QAEXPAVCCNode@2@@Z
?setParallaxArray@CCParallaxNode@cocos2d@@QAEXPAU_ccArray@2@@Z
?setParent@CCNode@cocos2d@@UAEXPAV12@@Z
?setParentElement@CCTMXMapInfo@cocos2d@@QAEXH@Z
?setParentGID@CCTMXMapInfo@cocos2d@@QAEXI@Z
?setPercentage@CCProgressTimer@cocos2d@@QAEXM@Z
?setPeriod@CCEaseElastic@cocos2d@@QAEXM@Z
?setPlaceHolder@CCTextFieldTTF@cocos2d@@UAEXPBD@Z
?setPoint@CCPoint@cocos2d@@QAEXMM@Z
?setPoints@CCCardinalSplineTo@cocos2d@@QAEXPAVCCPointArray@2@@Z
?setPopupNotify@CCFileUtils@cocos2d@@UAEX_N@Z
?setPosVar@CCParticleSystem@cocos2d@@UAEXABVCCPoint@2@@Z
?setPosition@CCLens3D@cocos2d@@QAEXABVCCPoint@2@@Z
?setPosition@CCMotionStreak@cocos2d@@UAEXABVCCPoint@2@@Z
?setPosition@CCNode@cocos2d@@UAEXABVCCPoint@2@@Z
?setPosition@CCNode@cocos2d@@UAEXMM@Z
?setPosition@CCRipple3D@cocos2d@@QAEXABVCCPoint@2@@Z
?setPosition@CCSprite@cocos2d@@UAEXABVCCPoint@2@@Z
?setPosition@CCTwirl@cocos2d@@QAEXABVCCPoint@2@@Z
?setPositionOffset@CCTMXObjectGroup@cocos2d@@QAEXABVCCPoint@2@@Z
?setPositionType@CCParticleSystem@cocos2d@@UAEXW4tCCPositionType@2@@Z
?setPositionX@CCNode@cocos2d@@UAEXM@Z
?setPositionY@CCNode@cocos2d@@UAEXM@Z
?setPriority@CCTouchDispatcher@cocos2d@@QAEXHPAVCCTouchDelegate@2@@Z
?setPriority@CCTouchHandler@cocos2d@@QAEXH@Z
?setProjection@CCDirector@cocos2d@@QAEXW4ccDirectorProjection@2@@Z
?setProperties@CCTMXLayer@cocos2d@@UAEXPAVCCDictionary@2@@Z
?setProperties@CCTMXLayerInfo@cocos2d@@UAEXPAVCCDictionary@2@@Z
?setProperties@CCTMXMapInfo@cocos2d@@UAEXPAVCCDictionary@2@@Z
?setProperties@CCTMXObjectGroup@cocos2d@@UAEXPAVCCDictionary@2@@Z
?setProperties@CCTMXTiledMap@cocos2d@@UAEXPAVCCDictionary@2@@Z
?setQuads@CCTextureAtlas@cocos2d@@UAEXPAU_ccV3F_C4B_T2F_Quad@2@@Z
?setQuadsToDraw@CCAtlasNode@cocos2d@@UAEXI@Z
?setRadialAccel@CCParticleSystem@cocos2d@@UAEXM@Z
?setRadialAccelVar@CCParticleSystem@cocos2d@@UAEXM@Z
?setRate@CCAccelAmplitude@cocos2d@@QAEXM@Z
?setRate@CCAccelDeccelAmplitude@cocos2d@@QAEXM@Z
?setRate@CCDeccelAmplitude@cocos2d@@QAEXM@Z
?setRate@CCEaseRateAction@cocos2d@@QAEXM@Z
?setRecenterChildren@CCAnimate@cocos2d@@QAEX_N@Z
?setRecenterFrames@CCAnimate@cocos2d@@QAEX_N@Z
?setRect@CCRect@cocos2d@@QAEXMMMM@Z
?setRect@CCSpriteFrame@cocos2d@@QAEXABVCCRect@2@@Z
?setRectArrayForKey@DS_Dictionary@@QAEXPBDABV?$vector@VCCRect@cocos2d@@V?$allocator@VCCRect@cocos2d@@@std@@@std@@@Z
?setRectArrayForKey@DS_Dictionary@@QAEXPBDABV?$vector@VCCRect@cocos2d@@V?$allocator@VCCRect@cocos2d@@@std@@@std@@_N@Z
?setRectForKey@DS_Dictionary@@QAEXPBDABVCCRect@cocos2d@@@Z
?setRectForKey@DS_Dictionary@@QAEXPBDABVCCRect@cocos2d@@_N@Z
?setRectInPixels@CCSpriteFrame@cocos2d@@QAEXABVCCRect@2@@Z
?setReorderChildDirtyRecursively@CCSprite@cocos2d@@MAEXXZ
?setResourceRootPath@CCApplication@cocos2d@@QAEXABV?$basic_string@DU?$char_traits@D@std@@V?$allocator@D@2@@std@@@Z
?setRestoreOriginalFrame@CCAnimation@cocos2d@@QAEX_N@Z
?setReuseGrid@CCGridBase@cocos2d@@QAEXH@Z
?setReverseDirection@CCProgressTimer@cocos2d@@QAEX_N@Z
?setReverseProgress@CCProgressTimer@cocos2d@@QAEX_N@Z
?setRotatePerSecond@CCParticleSystem@cocos2d@@UAEXM@Z
?setRotatePerSecondVar@CCParticleSystem@cocos2d@@UAEXM@Z
?setRotated@CCSpriteFrame@cocos2d@@QAEX_N@Z
?setRotation@CCNode@cocos2d@@UAEXM@Z
?setRotation@CCParticleSystem@cocos2d@@UAEXM@Z
?setRotation@CCSprite@cocos2d@@UAEXM@Z
?setRotationIsDir@CCParticleSystem@cocos2d@@UAEX_N@Z
?setRotationX@CCNode@cocos2d@@UAEXM@Z
?setRotationX@CCSprite@cocos2d@@UAEXM@Z
?setRotationY@CCNode@cocos2d@@UAEXM@Z
?setRotationY@CCSprite@cocos2d@@UAEXM@Z
?setScale@CCLabelBMFont@cocos2d@@UAEXM@Z
?setScale@CCNode@cocos2d@@UAEXM@Z
?setScale@CCNode@cocos2d@@UAEXMM@Z
?setScale@CCParticleSystem@cocos2d@@UAEXM@Z
?setScale@CCSprite@cocos2d@@UAEXM@Z
?setScaleX@CCLabelBMFont@cocos2d@@UAEXM@Z
?setScaleX@CCNode@cocos2d@@UAEXM@Z
?setScaleX@CCParticleSystem@cocos2d@@UAEXM@Z
?setScaleX@CCSprite@cocos2d@@UAEXM@Z
?setScaleY@CCLabelBMFont@cocos2d@@UAEXM@Z
?setScaleY@CCNode@cocos2d@@UAEXM@Z
?setScaleY@CCParticleSystem@cocos2d@@UAEXM@Z
?setScaleY@CCSprite@cocos2d@@UAEXM@Z
?setSceneDelegate@CCDirector@cocos2d@@UAEXPAVCCSceneDelegate@2@@Z
?setSceneReference@CCDirector@cocos2d@@QAEXPAVCCScene@2@@Z
?setScheduler@CCDirector@cocos2d@@UAEXPAVCCScheduler@2@@Z
?setScheduler@CCNode@cocos2d@@UAEXPAVCCScheduler@2@@Z
?setScissorInPoints@CCEGLView@cocos2d@@UAEXMMMM@Z
?setScissorInPoints@CCEGLViewProtocol@cocos2d@@UAEXMMMM@Z
?setScriptEngine@CCScriptEngineManager@cocos2d@@QAEXPAVCCScriptEngineProtocol@2@@Z
?setSearchPaths@CCFileUtils@cocos2d@@UAEXABV?$vector@V?$basic_string@DU?$char_traits@D@std@@V?$allocator@D@2@@std@@V?$allocator@V?$basic_string@DU?$char_traits@D@std@@V?$allocator@D@2@@std@@@2@@std@@@Z
?setSearchResolutionsOrder@CCFileUtils@cocos2d@@UAEXABV?$vector@V?$basic_string@DU?$char_traits@D@std@@V?$allocator@D@2@@std@@V?$allocator@V?$basic_string@DU?$char_traits@D@std@@V?$allocator@D@2@@std@@@2@@std@@@Z
?setSecureTextEntry@CCTextFieldTTF@cocos2d@@UAEX_N@Z
?setSelectedImage@CCMenuItemSprite@cocos2d@@UAEXPAVCCNode@2@@Z
?setSelectedIndex@CCMenuItemToggle@cocos2d@@UAEXI@Z
?setSelectedSpriteFrame@CCMenuItemImage@cocos2d@@QAEXPAVCCSpriteFrame@2@@Z
?setShaderProgram@CCNode@cocos2d@@UAEXPAVCCGLProgram@2@@Z
?setShaderProgram@CCTexture2D@cocos2d@@UAEXPAVCCGLProgram@2@@Z
?setShouldCallGLFinish@CCEGLView@cocos2d@@QAEX_N@Z
?setShutdownCalled@CCApplication@cocos2d@@QAEX_N@Z
?setSize@CCSize@cocos2d@@QAEXMM@Z
?setSkewX@CCNode@cocos2d@@UAEXM@Z
?setSkewX@CCSprite@cocos2d@@UAEXM@Z
?setSkewY@CCNode@cocos2d@@UAEXM@Z
?setSkewY@CCSprite@cocos2d@@UAEXM@Z
?setSleepMode@CCApplication@cocos2d@@QAEX_N@Z
?setSmoothFix@CCApplication@cocos2d@@QAEX_N@Z
?setSmoothFix@CCDirector@cocos2d@@QAEX_N@Z
?setSmoothFixCheck@CCDirector@cocos2d@@QAEX_N@Z
?setSourcePosition@CCParticleSystem@cocos2d@@UAEXABVCCPoint@2@@Z
?setSpeed@CCParticleSystem@cocos2d@@UAEXM@Z
?setSpeed@CCSpeed@cocos2d@@QAEXM@Z
?setSpeedMod@CCAction@cocos2d@@QAEXM@Z
?setSpeedVar@CCParticleSystem@cocos2d@@UAEXM@Z
?setSprite@CCProgressTimer@cocos2d@@QAEXPAVCCSprite@2@@Z
?setSprite@CCRenderTexture@cocos2d@@UAEXPAVCCSprite@2@@Z
?setSpriteFrame@CCAnimationFrame@cocos2d@@QAEXPAVCCSpriteFrame@2@@Z
?setStartColor@CCLayerGradient@cocos2d@@UAEXABU_ccColor3B@2@@Z
?setStartColor@CCParticleSystem@cocos2d@@UAEXABU_ccColor4F@2@@Z
?setStartColorVar@CCParticleSystem@cocos2d@@UAEXABU_ccColor4F@2@@Z
?setStartOpacity@CCLayerGradient@cocos2d@@UAEXE@Z
?setStartRadius@CCParticleSystem@cocos2d@@UAEXM@Z
?setStartRadiusVar@CCParticleSystem@cocos2d@@UAEXM@Z
?setStartSize@CCParticleSystem@cocos2d@@UAEXM@Z
?setStartSizeVar@CCParticleSystem@cocos2d@@UAEXM@Z
?setStartSpin@CCParticleSystem@cocos2d@@UAEXM@Z
?setStartSpinVar@CCParticleSystem@cocos2d@@UAEXM@Z
?setStartingPositionInitialized@CCMotionStreak@cocos2d@@QAEX_N@Z
?setStartupScriptFilename@CCApplication@cocos2d@@QAEXABV?$basic_string@DU?$char_traits@D@std@@V?$allocator@D@2@@std@@@Z
?setStencil@CCClippingNode@cocos2d@@QAEXPAVCCNode@2@@Z
?setStep@CCGridBase@cocos2d@@QAEXABVCCPoint@2@@Z
?setStoringCharacters@CCTMXMapInfo@cocos2d@@QAEX_N@Z
?setString@CCLabelAtlas@cocos2d@@UAEXPBD@Z
?setString@CCLabelBMFont@cocos2d@@MAEXPAG_N@Z
?setString@CCLabelBMFont@cocos2d@@UAEXPBD@Z
?setString@CCLabelBMFont@cocos2d@@UAEXPBD_N@Z
?setString@CCLabelTTF@cocos2d@@UAEXPBD@Z
?setString@CCMenuItemLabel@cocos2d@@QAEXPBD@Z
?setString@CCTextFieldTTF@cocos2d@@UAEXPBD@Z
?setStringArrayForKey@DS_Dictionary@@QAEXPBDABV?$vector@V?$basic_string@DU?$char_traits@D@std@@V?$allocator@D@2@@std@@V?$allocator@V?$basic_string@DU?$char_traits@D@std@@V?$allocator@D@2@@std@@@2@@std@@@Z
?setStringArrayForKey@DS_Dictionary@@QAEXPBDABV?$vector@V?$basic_string@DU?$char_traits@D@std@@V?$allocator@D@2@@std@@V?$allocator@V?$basic_string@DU?$char_traits@D@std@@V?$allocator@D@2@@std@@@2@@std@@_N@Z
?setStringForKey@CCUserDefault@cocos2d@@QAEXPBDABV?$basic_string@DU?$char_traits@D@std@@V?$allocator@D@2@@std@@@Z
?setStringForKey@DS_Dictionary@@QAEXPBDABV?$basic_string@DU?$char_traits@D@std@@V?$allocator@D@2@@std@@@Z
?setStringForKey@DS_Dictionary@@QAEXPBDABV?$basic_string@DU?$char_traits@D@std@@V?$allocator@D@2@@std@@_N@Z
?setStroke@CCMotionStreak@cocos2d@@QAEXM@Z
?setSubDictForKey@DS_Dictionary@@QAEXPBD@Z
?setSubDictForKey@DS_Dictionary@@QAEXPBD_N1@Z
?setSubItems@CCMenuItemToggle@cocos2d@@UAEXPAVCCArray@2@@Z
?setSwallowsTouches@CCTargetedTouchHandler@cocos2d@@QAEX_N@Z
?setTGAInfo@CCTileMapAtlas@cocos2d@@UAEXPAUsImageTGA@2@@Z
?setTMXFileName@CCTMXMapInfo@cocos2d@@QAEXPBD@Z
?setTag@CCAction@cocos2d@@UAEXH@Z
?setTag@CCObject@cocos2d@@UAEXH@Z
?setTangentialAccel@CCParticleSystem@cocos2d@@UAEXM@Z
?setTangentialAccelVar@CCParticleSystem@cocos2d@@UAEXM@Z
?setTarget@CCAction@cocos2d@@QAEXPAVCCNode@2@@Z
?setTarget@CCMenuItem@cocos2d@@QAEXPAVCCObject@2@P832@AEX0@Z@Z
?setTargetArray@CCLabelBMFont@cocos2d@@QAEXPAVCCArray@2@@Z
?setTargetCallback@CCCallFunc@cocos2d@@QAEXPAVCCObject@2@@Z
?setTargetPrio@CCTouchDispatcher@cocos2d@@QAEXH@Z
?setTexParameters@CCTexture2D@cocos2d@@QAEXPAU_ccTexParams@2@@Z
?setTextDefinition@CCLabelTTF@cocos2d@@QAEXPAU_ccFontDefinition@2@@Z
?setTexture@CCAtlasNode@cocos2d@@UAEXPAVCCTexture2D@2@@Z
?setTexture@CCMotionStreak@cocos2d@@UAEXPAVCCTexture2D@2@@Z
?setTexture@CCParticleBatchNode@cocos2d@@UAEXPAVCCTexture2D@2@@Z
?setTexture@CCParticleSystem@cocos2d@@UAEXPAVCCTexture2D@2@@Z
?setTexture@CCParticleSystemQuad@cocos2d@@UAEXPAVCCTexture2D@2@@Z
?setTexture@CCSprite@cocos2d@@UAEXPAVCCTexture2D@2@@Z
?setTexture@CCSpriteBatchNode@cocos2d@@UAEXPAVCCTexture2D@2@@Z
?setTexture@CCSpriteFrame@cocos2d@@QAEXPAVCCTexture2D@2@@Z
?setTexture@CCTextureAtlas@cocos2d@@UAEXPAVCCTexture2D@2@@Z
?setTextureAtlas@CCAtlasNode@cocos2d@@UAEXPAVCCTextureAtlas@2@@Z
?setTextureAtlas@CCParticleBatchNode@cocos2d@@QAEXPAVCCTextureAtlas@2@@Z
?setTextureAtlas@CCSprite@cocos2d@@QAEXPAVCCTextureAtlas@2@@Z
?setTextureAtlas@CCSpriteBatchNode@cocos2d@@QAEXPAVCCTextureAtlas@2@@Z
?setTextureCoords@CCSprite@cocos2d@@MAEXABVCCRect@2@@Z
?setTextureFlipped@CCGridBase@cocos2d@@QAEX_N@Z
?setTextureRect@CCSprite@cocos2d@@UAEXABVCCRect@2@@Z
?setTextureRect@CCSprite@cocos2d@@UAEXABVCCRect@2@_NABVCCSize@2@@Z
?setTextureWithRect@CCParticleSystemQuad@cocos2d@@QAEXPAVCCTexture2D@2@ABVCCRect@2@@Z
?setTile@CCTileMapAtlas@cocos2d@@QAEXABU_ccColor3B@2@ABVCCPoint@2@@Z
?setTile@CCTiledGrid3D@cocos2d@@QAEXABVCCPoint@2@ABU_ccQuad3@2@@Z
?setTile@CCTiledGrid3DAction@cocos2d@@QAEXABVCCPoint@2@ABU_ccQuad3@2@@Z
?setTileGID@CCTMXLayer@cocos2d@@QAEXIABVCCPoint@2@@Z
?setTileGID@CCTMXLayer@cocos2d@@QAEXIABVCCPoint@2@W4ccTMXTileFlags_@2@@Z
?setTileProperties@CCTMXMapInfo@cocos2d@@QAEXPAVCCDictionary@2@@Z
?setTileSet@CCTMXLayer@cocos2d@@UAEXPAVCCTMXTilesetInfo@2@@Z
?setTileSize@CCTMXMapInfo@cocos2d@@QAEXABVCCSize@2@@Z
?setTileSize@CCTMXTiledMap@cocos2d@@QAEXABVCCSize@2@@Z
?setTiles@CCTMXLayer@cocos2d@@QAEXPAI@Z
?setTilesets@CCTMXMapInfo@cocos2d@@UAEXPAVCCArray@2@@Z
?setTimeScale@CCScheduler@cocos2d@@QAEXM@Z
?setTlVertexMod@CCSprite@cocos2d@@QAEXM@Z
?setTotalParticles@CCParticleSystem@cocos2d@@UAEXI@Z
?setTotalParticles@CCParticleSystemQuad@cocos2d@@UAEXI@Z
?setTouchDelegate@CCEGLViewProtocol@cocos2d@@UAEXPAVEGLTouchDelegate@2@@Z
?setTouchDispatcher@CCDirector@cocos2d@@UAEXPAVCCTouchDispatcher@2@@Z
?setTouchEnabled@CCLayer@cocos2d@@UAEX_N@Z
?setTouchInfo@CCTouch@cocos2d@@QAEXHMM@Z
?setTouchMode@CCLayer@cocos2d@@UAEXW4ccTouchesMode@2@@Z
?setTouchPriority@CCLayer@cocos2d@@UAEXH@Z
?setTrVertexMod@CCSprite@cocos2d@@QAEXM@Z
?setType@CCProgressTimer@cocos2d@@QAEXW4CCProgressTimerType@2@@Z
?setUniformLocationWith1f@CCGLProgram@cocos2d@@QAEXHM@Z
?setUniformLocationWith1i@CCGLProgram@cocos2d@@QAEXHH@Z
?setUniformLocationWith2f@CCGLProgram@cocos2d@@QAEXHMM@Z
?setUniformLocationWith2fv@CCGLProgram@cocos2d@@QAEXHPAMI@Z
?setUniformLocationWith2i@CCGLProgram@cocos2d@@QAEXHHH@Z
?setUniformLocationWith2iv@CCGLProgram@cocos2d@@QAEXHPAHI@Z
?setUniformLocationWith3f@CCGLProgram@cocos2d@@QAEXHMMM@Z
?setUniformLocationWith3fv@CCGLProgram@cocos2d@@QAEXHPAMI@Z
?setUniformLocationWith3i@CCGLProgram@cocos2d@@QAEXHHHH@Z
?setUniformLocationWith3iv@CCGLProgram@cocos2d@@QAEXHPAHI@Z
?setUniformLocationWith4f@CCGLProgram@cocos2d@@QAEXHMMMM@Z
?setUniformLocationWith4fv@CCGLProgram@cocos2d@@QAEXHPAMI@Z
?setUniformLocationWith4i@CCGLProgram@cocos2d@@QAEXHHHHH@Z
?setUniformLocationWith4iv@CCGLProgram@cocos2d@@QAEXHPAHI@Z
?setUniformLocationWithMatrix3fv@CCGLProgram@cocos2d@@QAEXHPAMI@Z
?setUniformLocationWithMatrix4fv@CCGLProgram@cocos2d@@QAEXHPAMI@Z
?setUniformsForBuiltins@CCGLProgram@cocos2d@@QAEXXZ
?setUpXYZ@CCCamera@cocos2d@@QAEXMMM@Z
?setUserData@CCNode@cocos2d@@UAEXPAX@Z
?setUserInfo@CCAnimationFrame@cocos2d@@QAEXPAVCCDictionary@2@@Z
?setUserObject@CCNode@cocos2d@@UAEXPAVCCObject@2@@Z
?setVec2ArrayForKey@DS_Dictionary@@QAEXPBDABV?$vector@VCCPoint@cocos2d@@V?$allocator@VCCPoint@cocos2d@@@std@@@std@@@Z
?setVec2ArrayForKey@DS_Dictionary@@QAEXPBDABV?$vector@VCCPoint@cocos2d@@V?$allocator@VCCPoint@cocos2d@@@std@@@std@@_N@Z
?setVec2ForKey@DS_Dictionary@@QAEXPBDABVCCPoint@cocos2d@@@Z
?setVec2ForKey@DS_Dictionary@@QAEXPBDABVCCPoint@cocos2d@@_N@Z
?setVector@CCLayerGradient@cocos2d@@UAEXABVCCPoint@2@@Z
?setVertex@CCGrid3D@cocos2d@@QAEXABVCCPoint@2@ABU_ccVertex3F@2@@Z
?setVertex@CCGrid3DAction@cocos2d@@QAEXABVCCPoint@2@ABU_ccVertex3F@2@@Z
?setVertexRect@CCSprite@cocos2d@@UAEXABVCCRect@2@@Z
?setVertexZ@CCNode@cocos2d@@UAEXM@Z
?setVertexZ@CCSprite@cocos2d@@UAEXM@Z
?setVerticalAlignment@CCLabelTTF@cocos2d@@QAEXW4CCVerticalTextAlignment@2@@Z
?setViewName@CCEGLViewProtocol@cocos2d@@UAEXPBD@Z
?setViewPortInPoints@CCEGLView@cocos2d@@UAEXMMMM@Z
?setViewPortInPoints@CCEGLViewProtocol@cocos2d@@UAEXMMMM@Z
?setViewport@CCDirector@cocos2d@@QAEXXZ
?setVisible@CCNode@cocos2d@@UAEX_N@Z
?setVisible@CCSprite@cocos2d@@UAEX_N@Z
?setWidth@CCLabelBMFont@cocos2d@@UAEXM@Z
?setWindowedSize@CCEGLView@cocos2d@@QAEXVCCSize@2@@Z
?setXOffset@CCSpriteExtra@cocos2d@@QAEXM@Z
?setYOffset@CCSpriteExtra@cocos2d@@QAEXM@Z
?setZOrder@CCNode@cocos2d@@UAEXH@Z
?setupGLView@CCApplication@cocos2d@@UAEXXZ
?setupIndices@CCTextureAtlas@cocos2d@@AAEXXZ
?setupScreenScale@CCDirector@cocos2d@@QAEXVCCSize@2@0W4TextureQuality@2@@Z
?setupTileSprite@CCTMXLayer@cocos2d@@AAEXPAVCCSprite@2@VCCPoint@2@I@Z
?setupTiles@CCTMXLayer@cocos2d@@QAEXXZ
?setupTransition@CCTransitionProgress@cocos2d@@MAEXXZ
?setupTransition@CCTransitionProgressInOut@cocos2d@@MAEXXZ
?setupVBO@CCParticleSystemQuad@cocos2d@@AAEXXZ
?setupVBO@CCTextureAtlas@cocos2d@@AAEXXZ
?setupVerticalSync@CCApplication@cocos2d@@QAEXXZ
?setupWindow@CCEGLView@cocos2d@@IAEXVCCRect@2@@Z
?sharedAnimationCache@CCAnimationCache@cocos2d@@SAPAV12@XZ
?sharedApplication@CCApplication@cocos2d@@SAPAV12@XZ
?sharedConfiguration@CCConfiguration@cocos2d@@SAPAV12@XZ
?sharedDecoder@ObjectDecoder@@SAPAV1@XZ
?sharedDirector@CCDirector@cocos2d@@SAPAV12@XZ
?sharedDispatcher@CCIMEDispatcher@cocos2d@@SAPAV12@XZ
?sharedFileUtils@CCFileUtils@cocos2d@@SAPAV12@XZ
?sharedManager@CCContentManager@@SAPAV1@XZ
?sharedManager@CCScriptEngineManager@cocos2d@@SAPAV12@XZ
?sharedNotificationCenter@CCNotificationCenter@cocos2d@@SAPAV12@XZ
?sharedOpenGLView@CCEGLView@cocos2d@@SAPAV12@XZ
?sharedPoolManager@CCPoolManager@cocos2d@@SAPAV12@XZ
?sharedProfiler@CCProfiler@cocos2d@@SAPAV12@XZ
?sharedShaderCache@CCShaderCache@cocos2d@@SAPAV12@XZ
?sharedSpriteFrameCache@CCSpriteFrameCache@cocos2d@@SAPAV12@XZ
?sharedTextureCache@CCTextureCache@cocos2d@@SAPAV12@XZ
?sharedUserDefault@CCUserDefault@cocos2d@@SAPAV12@XZ
?shouldUseHD@CCFileUtils@cocos2d@@MAE_NXZ
?showCursor@CCEGLView@cocos2d@@QAEX_N@Z
?showMessage@CCEGLView@cocos2d@@QAEXV?$basic_string@DU?$char_traits@D@std@@V?$allocator@D@2@@std@@@Z
?showStats@CCDirector@cocos2d@@IAEXXZ
?shuffle@CCShuffleTiles@cocos2d@@QAEXPAII@Z
?shuffle@CCTurnOffTiles@cocos2d@@QAEXPAII@Z
?shutdownApplication@CCApplication@cocos2d@@QAEXXZ
?sign_flag@?$AlignTypeSpec@$0A@@fmt@@QBE_NXZ
?sign_flag@?$TypeSpec@$0A@@fmt@@QBE_NXZ
?sign_flag@?$TypeSpec@$0FI@@fmt@@QBE_NXZ
?sign_flag@?$TypeSpec@$0GC@@fmt@@QBE_NXZ
?sign_flag@?$TypeSpec@$0GP@@fmt@@QBE_NXZ
?sign_flag@?$TypeSpec@$0HI@@fmt@@QBE_NXZ
?size@?$BasicStringRef@D@fmt@@QBEIXZ
?size@?$BasicWriter@D@fmt@@QBEIXZ
?size@ArgList@fmt@@QBEIXZ
?size@FormatInt@fmt@@QBEIXZ
?size@UTF16ToUTF8@internal@fmt@@QBEIXZ
?size@UTF8ToUTF16@internal@fmt@@QBEIXZ
?sm_pSharedApplication@CCApplication@cocos2d@@1PAV12@A
?snapshotTextures@CCTextureCache@cocos2d@@QAEPAVCCDictionary@2@XZ
?sortAllChildren@CCNode@cocos2d@@UAEXXZ
?sortAllChildren@CCSprite@cocos2d@@UAEXXZ
?sortAllChildren@CCSpriteBatchNode@cocos2d@@UAEXXZ
?sphericalRadius@CCOrbitCamera@cocos2d@@QAEXPAM00@Z
?split@DS_Dictionary@@AAEXABV?$basic_string@DU?$char_traits@D@std@@V?$allocator@D@2@@std@@PBDAAV?$vector@V?$basic_string@DU?$char_traits@D@std@@V?$allocator@D@2@@std@@V?$allocator@V?$basic_string@DU?$char_traits@D@std@@V?$allocator@D@2@@std@@@2@@3@@Z
?splitWithForm@DS_Dictionary@@AAE_NABV?$basic_string@DU?$char_traits@D@std@@V?$allocator@D@2@@std@@AAV?$vector@V?$basic_string@DU?$char_traits@D@std@@V?$allocator@D@2@@std@@V?$allocator@V?$basic_string@DU?$char_traits@D@std@@V?$allocator@D@2@@std@@@2@@3@@Z
?spriteFrameByName@CCSpriteFrameCache@cocos2d@@QAEPAVCCSpriteFrame@2@PBD@Z
?startElement@CCSAXParser@cocos2d@@SAXPAXPBEPAPBE@Z
?startElement@CCTMXMapInfo@cocos2d@@UAEXPAXPBDPAPBD@Z
?startWithTarget@CCAccelAmplitude@cocos2d@@UAEXPAVCCNode@2@@Z
?startWithTarget@CCAccelDeccelAmplitude@cocos2d@@UAEXPAVCCNode@2@@Z
?startWithTarget@CCAction@cocos2d@@UAEXPAVCCNode@2@@Z
?startWithTarget@CCActionCamera@cocos2d@@UAEXPAVCCNode@2@@Z
?startWithTarget@CCActionEase@cocos2d@@UAEXPAVCCNode@2@@Z
?startWithTarget@CCActionInterval@cocos2d@@UAEXPAVCCNode@2@@Z
?startWithTarget@CCActionTween@cocos2d@@UAEXPAVCCNode@2@@Z
?startWithTarget@CCAnimate@cocos2d@@UAEXPAVCCNode@2@@Z
?startWithTarget@CCBezierBy@cocos2d@@UAEXPAVCCNode@2@@Z
?startWithTarget@CCBezierTo@cocos2d@@UAEXPAVCCNode@2@@Z
?startWithTarget@CCBlink@cocos2d@@UAEXPAVCCNode@2@@Z
?startWithTarget@CCCardinalSplineBy@cocos2d@@UAEXPAVCCNode@2@@Z
?startWithTarget@CCCardinalSplineTo@cocos2d@@UAEXPAVCCNode@2@@Z
?startWithTarget@CCDeccelAmplitude@cocos2d@@UAEXPAVCCNode@2@@Z
?startWithTarget@CCFadeTo@cocos2d@@UAEXPAVCCNode@2@@Z
?startWithTarget@CCGridAction@cocos2d@@UAEXPAVCCNode@2@@Z
?startWithTarget@CCJumpBy@cocos2d@@UAEXPAVCCNode@2@@Z
?startWithTarget@CCJumpTo@cocos2d@@UAEXPAVCCNode@2@@Z
?startWithTarget@CCMoveBy@cocos2d@@UAEXPAVCCNode@2@@Z
?startWithTarget@CCMoveTo@cocos2d@@UAEXPAVCCNode@2@@Z
?startWithTarget@CCOrbitCamera@cocos2d@@UAEXPAVCCNode@2@@Z
?startWithTarget@CCProgressFromTo@cocos2d@@UAEXPAVCCNode@2@@Z
?startWithTarget@CCProgressTo@cocos2d@@UAEXPAVCCNode@2@@Z
?startWithTarget@CCRepeat@cocos2d@@UAEXPAVCCNode@2@@Z
?startWithTarget@CCRepeatForever@cocos2d@@UAEXPAVCCNode@2@@Z
?startWithTarget@CCReuseGrid@cocos2d@@UAEXPAVCCNode@2@@Z
?startWithTarget@CCReverseTime@cocos2d@@UAEXPAVCCNode@2@@Z
?startWithTarget@CCRotateBy@cocos2d@@UAEXPAVCCNode@2@@Z
?startWithTarget@CCRotateTo@cocos2d@@UAEXPAVCCNode@2@@Z
?startWithTarget@CCScaleBy@cocos2d@@UAEXPAVCCNode@2@@Z
?startWithTarget@CCScaleTo@cocos2d@@UAEXPAVCCNode@2@@Z
?startWithTarget@CCSequence@cocos2d@@UAEXPAVCCNode@2@@Z
?startWithTarget@CCShuffleTiles@cocos2d@@UAEXPAVCCNode@2@@Z
?startWithTarget@CCSkewBy@cocos2d@@UAEXPAVCCNode@2@@Z
?startWithTarget@CCSkewTo@cocos2d@@UAEXPAVCCNode@2@@Z
?startWithTarget@CCSpawn@cocos2d@@UAEXPAVCCNode@2@@Z
?startWithTarget@CCSpeed@cocos2d@@UAEXPAVCCNode@2@@Z
?startWithTarget@CCSplitCols@cocos2d@@UAEXPAVCCNode@2@@Z
?startWithTarget@CCSplitRows@cocos2d@@UAEXPAVCCNode@2@@Z
?startWithTarget@CCStopGrid@cocos2d@@UAEXPAVCCNode@2@@Z
?startWithTarget@CCTargetedAction@cocos2d@@UAEXPAVCCNode@2@@Z
?startWithTarget@CCTintBy@cocos2d@@UAEXPAVCCNode@2@@Z
?startWithTarget@CCTintTo@cocos2d@@UAEXPAVCCNode@2@@Z
?startWithTarget@CCTurnOffTiles@cocos2d@@UAEXPAVCCNode@2@@Z
?step@CCAction@cocos2d@@UAEXM@Z
?step@CCActionInstant@cocos2d@@UAEXM@Z
?step@CCActionInterval@cocos2d@@UAEXM@Z
?step@CCFollow@cocos2d@@UAEXM@Z
?step@CCRepeatForever@cocos2d@@UAEXM@Z
?step@CCSpeed@cocos2d@@UAEXM@Z
?stepBackToRootSubDict@DS_Dictionary@@QAEXXZ
?stepIntoSubDictWithKey@DS_Dictionary@@QAE_NPBD@Z
?stepOutOfSubDict@DS_Dictionary@@QAEXXZ
?stop@CCAction@cocos2d@@UAEXXZ
?stop@CCActionEase@cocos2d@@UAEXXZ
?stop@CCAnimate@cocos2d@@UAEXXZ
?stop@CCBlink@cocos2d@@UAEXXZ
?stop@CCFollow@cocos2d@@UAEXXZ
?stop@CCRepeat@cocos2d@@UAEXXZ
?stop@CCReverseTime@cocos2d@@UAEXXZ
?stop@CCSequence@cocos2d@@UAEXXZ
?stop@CCSpawn@cocos2d@@UAEXXZ
?stop@CCSpeed@cocos2d@@UAEXXZ
?stop@CCTargetedAction@cocos2d@@UAEXXZ
?stopAction@CCNode@cocos2d@@QAEXPAVCCAction@2@@Z
?stopActionByTag@CCNode@cocos2d@@QAEXH@Z
?stopAllActions@CCNode@cocos2d@@QAEXXZ
?stopStroke@CCMotionStreak@cocos2d@@QAEXXZ
?stopSystem@CCParticleSystem@cocos2d@@QAEXXZ
?str@?$BasicWriter@D@fmt@@QBE?AV?$basic_string@DU?$char_traits@D@std@@V?$allocator@D@2@@std@@XZ
?str@?$BasicWriter@_W@fmt@@QBE?AV?$basic_string@_WU?$char_traits@_W@std@@V?$allocator@_W@2@@std@@XZ
?str@FormatInt@fmt@@QBE?AV?$basic_string@DU?$char_traits@D@std@@V?$allocator@D@2@@std@@XZ
?str@UTF16ToUTF8@internal@fmt@@QBE?AV?$basic_string@DU?$char_traits@D@std@@V?$allocator@D@2@@std@@XZ
?str@UTF8ToUTF16@internal@fmt@@QBE?AV?$basic_string@_WU?$char_traits@_W@std@@V?$allocator@_W@2@@std@@XZ
?stringAtIndex@CCArray@cocos2d@@QAEPAVCCString@2@I@Z
?stringForFormat@CCTexture2D@cocos2d@@QAEPBDXZ
?supportsBGRA8888@CCConfiguration@cocos2d@@QBE_NXZ
?supportsDiscardFramebuffer@CCConfiguration@cocos2d@@QBE_NXZ
?supportsNPOT@CCConfiguration@cocos2d@@QBE_NXZ
?supportsPVRTC@CCConfiguration@cocos2d@@QBE_NXZ
?supportsShareableVAO@CCConfiguration@cocos2d@@QBE_NXZ
?swap@CCSpriteBatchNode@cocos2d@@AAEXHH@Z
?swapBuffers@CCEGLView@cocos2d@@UAEXXZ
?switchTo@CCLayerMultiplex@cocos2d@@QAEXI@Z
?switchToAndReleaseMe@CCLayerMultiplex@cocos2d@@QAEXI@Z
?testFunc@CCFadeOutBLTiles@cocos2d@@UAEMABVCCSize@2@M@Z
?testFunc@CCFadeOutDownTiles@cocos2d@@UAEMABVCCSize@2@M@Z
?testFunc@CCFadeOutTRTiles@cocos2d@@UAEMABVCCSize@2@M@Z
?testFunc@CCFadeOutUpTiles@cocos2d@@UAEMABVCCSize@2@M@Z
?textChanged@CCTextFieldDelegate@cocos2d@@UAEXXZ
?textFieldWithPlaceHolder@CCTextFieldTTF@cocos2d@@SAPAV12@PBD0M@Z
?textFieldWithPlaceHolder@CCTextFieldTTF@cocos2d@@SAPAV12@PBDABVCCSize@2@W4CCTextAlignment@2@0M@Z
?textHandler@CCSAXParser@cocos2d@@SAXPAXPBEH@Z
?textHandler@CCTMXMapInfo@cocos2d@@UAEXPAXPBDH@Z
?textureCoordFromAlphaPoint@CCProgressTimer@cocos2d@@IAE?AU_ccTex2F@2@VCCPoint@2@@Z
?textureForKey@CCTextureCache@cocos2d@@QAEPAVCCTexture2D@2@PBD@Z
?tile@CCTiledGrid3D@cocos2d@@QAE?AU_ccQuad3@2@ABVCCPoint@2@@Z
?tile@CCTiledGrid3DAction@cocos2d@@QAE?AU_ccQuad3@2@ABVCCPoint@2@@Z
?tileAt@CCTMXLayer@cocos2d@@QAEPAVCCSprite@2@ABVCCPoint@2@@Z
?tileAt@CCTileMapAtlas@cocos2d@@QAE?AU_ccColor3B@2@ABVCCPoint@2@@Z
?tileGIDAt@CCTMXLayer@cocos2d@@QAEIABVCCPoint@2@@Z
?tileGIDAt@CCTMXLayer@cocos2d@@QAEIABVCCPoint@2@PAW4ccTMXTileFlags_@2@@Z
?tilesetForLayer@CCTMXTiledMap@cocos2d@@AAEPAVCCTMXTilesetInfo@2@PAVCCTMXLayerInfo@2@PAVCCTMXMapInfo@2@@Z
?timerWithScriptHandler@CCTimer@cocos2d@@SAPAV12@HM@Z
?timerWithTarget@CCTimer@cocos2d@@SAPAV12@PAVCCObject@2@P832@AEXM@Z@Z
?timerWithTarget@CCTimer@cocos2d@@SAPAV12@PAVCCObject@2@P832@AEXM@ZM@Z
?timersubCocos2d@CCTime@cocos2d@@SANPAUcc_timeval@2@0@Z
?tintWithColor@CCMotionStreak@cocos2d@@QAEXU_ccColor3B@2@@Z
?toggleFullScreen@CCEGLView@cocos2d@@QAEX_N@Z
?toggleMouseControl@CCApplication@cocos2d@@QAEX_N@Z
?toggleVerticalSync@CCApplication@cocos2d@@QAEX_N@Z
?touches@CCTouchDispatcher@cocos2d@@QAEXPAVCCSet@2@PAVCCEvent@2@I@Z
?touchesBegan@CCTouchDispatcher@cocos2d@@UAEXPAVCCSet@2@PAVCCEvent@2@@Z
?touchesCancelled@CCTouchDispatcher@cocos2d@@UAEXPAVCCSet@2@PAVCCEvent@2@@Z
?touchesEnded@CCTouchDispatcher@cocos2d@@UAEXPAVCCSet@2@PAVCCEvent@2@@Z
?touchesMoved@CCTouchDispatcher@cocos2d@@UAEXPAVCCSet@2@PAVCCEvent@2@@Z
?transform@CCNode@cocos2d@@QAEXXZ
?transformAncestors@CCNode@cocos2d@@QAEXXZ
?transformTile@CCFadeOutTRTiles@cocos2d@@UAEXABVCCPoint@2@M@Z
?transformTile@CCFadeOutUpTiles@cocos2d@@UAEXABVCCPoint@2@M@Z
?trySaveGame@CCApplicationProtocol@cocos2d@@UAEXXZ
?turnOffTile@CCFadeOutTRTiles@cocos2d@@QAEXABVCCPoint@2@@Z
?turnOffTile@CCTurnOffTiles@cocos2d@@QAEXABVCCPoint@2@@Z
?turnOnTile@CCFadeOutTRTiles@cocos2d@@QAEXABVCCPoint@2@@Z
?turnOnTile@CCTurnOffTiles@cocos2d@@QAEXABVCCPoint@2@@Z
?type@?$AlignTypeSpec@$0A@@fmt@@QBEDXZ
?type@?$TypeSpec@$0A@@fmt@@QBEDXZ
?type@?$TypeSpec@$0FI@@fmt@@QBEDXZ
?type@?$TypeSpec@$0GC@@fmt@@QBEDXZ
?type@?$TypeSpec@$0GP@@fmt@@QBEDXZ
?type@?$TypeSpec@$0HI@@fmt@@QBEDXZ
?uintValue@CCString@cocos2d@@QBEIXZ
?unregisterScriptAccelerateHandler@CCLayer@cocos2d@@QAEXXZ
?unregisterScriptHandler@CCNode@cocos2d@@UAEXXZ
?unregisterScriptKeypadHandler@CCLayer@cocos2d@@QAEXXZ
?unregisterScriptObserver@CCNotificationCenter@cocos2d@@QAEXPAVCCObject@2@PBD@Z
?unregisterScriptTapHandler@CCMenuItem@cocos2d@@UAEXXZ
?unregisterScriptTouchHandler@CCLayer@cocos2d@@UAEXXZ
?unrotate@CCPoint@cocos2d@@QBE?AV12@ABV12@@Z
?unschedule@CCNode@cocos2d@@QAEXP8CCObject@2@AEXM@Z@Z
?unscheduleAll@CCScheduler@cocos2d@@QAEXXZ
?unscheduleAllForTarget@CCScheduler@cocos2d@@QAEXPAVCCObject@2@@Z
?unscheduleAllSelectors@CCNode@cocos2d@@QAEXXZ
?unscheduleAllWithMinPriority@CCScheduler@cocos2d@@QAEXH@Z
?unscheduleScriptEntry@CCScheduler@cocos2d@@QAEXI@Z
?unscheduleSelector@CCScheduler@cocos2d@@QAEXP8CCObject@2@AEXM@ZPAV32@@Z
?unscheduleUpdate@CCNode@cocos2d@@QAEXXZ
?unscheduleUpdateForTarget@CCScheduler@cocos2d@@QAEXPBVCCObject@2@@Z
?unselected@CCMenuItem@cocos2d@@UAEXXZ
?unselected@CCMenuItemLabel@cocos2d@@UAEXXZ
?unselected@CCMenuItemSprite@cocos2d@@UAEXXZ
?unselected@CCMenuItemToggle@cocos2d@@UAEXXZ
?unzClose@cocos2d@@YAHPAX@Z
?unzCloseCurrentFile@cocos2d@@YAHPAX@Z
?unzGetCurrentFileInfo64@cocos2d@@YAHPAXPAUunz_file_info64_s@1@PADK0K2K@Z
?unzGetCurrentFileInfo@cocos2d@@YAHPAXPAUunz_file_info_s@1@PADK0K2K@Z
?unzGetCurrentFileZStreamPos64@cocos2d@@YA_KPAX@Z
?unzGetFilePos64@cocos2d@@YAHPAXPAUunz64_file_pos_s@1@@Z
?unzGetFilePos@cocos2d@@YAHPAXPAUunz_file_pos_s@1@@Z
?unzGetGlobalComment@cocos2d@@YAHPAXPADK@Z
?unzGetGlobalInfo64@cocos2d@@YAHPAXPAUunz_global_info64_s@1@@Z
?unzGetGlobalInfo@cocos2d@@YAHPAXPAUunz_global_info_s@1@@Z
?unzGetLocalExtrafield@cocos2d@@YAHPAX0I@Z
?unzGetOffset64@cocos2d@@YA_KPAX@Z
?unzGetOffset@cocos2d@@YAKPAX@Z
?unzGoToFilePos64@cocos2d@@YAHPAXPBUunz64_file_pos_s@1@@Z
?unzGoToFilePos@cocos2d@@YAHPAXPAUunz_file_pos_s@1@@Z
?unzGoToFirstFile64@cocos2d@@YAHPAXPAUunz_file_info64_s@1@PADK@Z
?unzGoToFirstFile@cocos2d@@YAHPAX@Z
?unzGoToNextFile64@cocos2d@@YAHPAXPAUunz_file_info64_s@1@PADK@Z
?unzGoToNextFile@cocos2d@@YAHPAX@Z
?unzLocateFile@cocos2d@@YAHPAXPBDH@Z
?unzOpen2@cocos2d@@YAPAXPBDPAUzlib_filefunc_def_s@1@@Z
?unzOpen2_64@cocos2d@@YAPAXPBXPAUzlib_filefunc64_def_s@1@@Z
?unzOpen64@cocos2d@@YAPAXPBX@Z
?unzOpen@cocos2d@@YAPAXPBD@Z
?unzOpenCurrentFile2@cocos2d@@YAHPAXPAH1H@Z
?unzOpenCurrentFile3@cocos2d@@YAHPAXPAH1HPBD@Z
?unzOpenCurrentFile@cocos2d@@YAHPAX@Z
?unzOpenCurrentFilePassword@cocos2d@@YAHPAXPBD@Z
?unzReadCurrentFile@cocos2d@@YAHPAX0I@Z
?unzSetOffset64@cocos2d@@YAHPAX_K@Z
?unzSetOffset@cocos2d@@YAHPAXK@Z
?unzStringFileNameCompare@cocos2d@@YAHPBD0H@Z
?unzeof@cocos2d@@YAHPAX@Z
?unztell64@cocos2d@@YA_KPAX@Z
?unztell@cocos2d@@YAJPAX@Z
?update@CCAccelAmplitude@cocos2d@@UAEXM@Z
?update@CCAccelDeccelAmplitude@cocos2d@@UAEXM@Z
?update@CCAccelerometer@cocos2d@@QAEXNNNN@Z
?update@CCAction@cocos2d@@UAEXM@Z
?update@CCActionEase@cocos2d@@UAEXM@Z
?update@CCActionInstant@cocos2d@@UAEXM@Z
?update@CCActionManager@cocos2d@@MAEXM@Z
?update@CCActionTween@cocos2d@@UAEXM@Z
?update@CCAnimate@cocos2d@@UAEXM@Z
?update@CCBezierBy@cocos2d@@UAEXM@Z
?update@CCBlink@cocos2d@@UAEXM@Z
?update@CCCallFunc@cocos2d@@UAEXM@Z
?update@CCCardinalSplineTo@cocos2d@@UAEXM@Z
?update@CCComponent@cocos2d@@UAEXM@Z
?update@CCDeccelAmplitude@cocos2d@@UAEXM@Z
?update@CCDelayTime@cocos2d@@UAEXM@Z
?update@CCEaseBackIn@cocos2d@@UAEXM@Z
?update@CCEaseBackInOut@cocos2d@@UAEXM@Z
?update@CCEaseBackOut@cocos2d@@UAEXM@Z
?update@CCEaseBounceIn@cocos2d@@UAEXM@Z
?update@CCEaseBounceInOut@cocos2d@@UAEXM@Z
?update@CCEaseBounceOut@cocos2d@@UAEXM@Z
?update@CCEaseElasticIn@cocos2d@@UAEXM@Z
?update@CCEaseElasticInOut@cocos2d@@UAEXM@Z
?update@CCEaseElasticOut@cocos2d@@UAEXM@Z
?update@CCEaseExponentialIn@cocos2d@@UAEXM@Z
?update@CCEaseExponentialInOut@cocos2d@@UAEXM@Z
?update@CCEaseExponentialOut@cocos2d@@UAEXM@Z
?update@CCEaseIn@cocos2d@@UAEXM@Z
?update@CCEaseInOut@cocos2d@@UAEXM@Z
?update@CCEaseOut@cocos2d@@UAEXM@Z
?update@CCEaseSineIn@cocos2d@@UAEXM@Z
?update@CCEaseSineInOut@cocos2d@@UAEXM@Z
?update@CCEaseSineOut@cocos2d@@UAEXM@Z
?update@CCFadeIn@cocos2d@@UAEXM@Z
?update@CCFadeOut@cocos2d@@UAEXM@Z
?update@CCFadeOutTRTiles@cocos2d@@UAEXM@Z
?update@CCFadeTo@cocos2d@@UAEXM@Z
?update@CCFlipX3D@cocos2d@@UAEXM@Z
?update@CCFlipX@cocos2d@@UAEXM@Z
?update@CCFlipY3D@cocos2d@@UAEXM@Z
?update@CCFlipY@cocos2d@@UAEXM@Z
?update@CCHide@cocos2d@@UAEXM@Z
?update@CCJumpBy@cocos2d@@UAEXM@Z
?update@CCJumpTiles3D@cocos2d@@UAEXM@Z
?update@CCLens3D@cocos2d@@UAEXM@Z
?update@CCLiquid@cocos2d@@UAEXM@Z
?update@CCMotionStreak@cocos2d@@UAEXM@Z
?update@CCMoveBy@cocos2d@@UAEXM@Z
?update@CCNode@cocos2d@@UAEXM@Z
?update@CCObject@cocos2d@@UAEXM@Z
?update@CCOrbitCamera@cocos2d@@UAEXM@Z
?update@CCPageTurn3D@cocos2d@@UAEXM@Z
?update@CCParticleSystem@cocos2d@@UAEXM@Z
?update@CCPlace@cocos2d@@UAEXM@Z
?update@CCProgressFromTo@cocos2d@@UAEXM@Z
?update@CCProgressTo@cocos2d@@UAEXM@Z
?update@CCRemoveSelf@cocos2d@@UAEXM@Z
?update@CCRepeat@cocos2d@@UAEXM@Z
?update@CCReverseTime@cocos2d@@UAEXM@Z
?update@CCRipple3D@cocos2d@@UAEXM@Z
?update@CCRotateBy@cocos2d@@UAEXM@Z
?update@CCRotateTo@cocos2d@@UAEXM@Z
?update@CCScaleTo@cocos2d@@UAEXM@Z
?update@CCScheduler@cocos2d@@UAEXM@Z
?update@CCSequence@cocos2d@@UAEXM@Z
?update@CCShaky3D@cocos2d@@UAEXM@Z
?update@CCShakyTiles3D@cocos2d@@UAEXM@Z
?update@CCShatteredTiles3D@cocos2d@@UAEXM@Z
?update@CCShow@cocos2d@@UAEXM@Z
?update@CCShuffleTiles@cocos2d@@UAEXM@Z
?update@CCSkewTo@cocos2d@@UAEXM@Z
?update@CCSpawn@cocos2d@@UAEXM@Z
?update@CCSplitCols@cocos2d@@UAEXM@Z
?update@CCSplitRows@cocos2d@@UAEXM@Z
?update@CCTargetedAction@cocos2d@@UAEXM@Z
?update@CCTimer@cocos2d@@UAEXM@Z
?update@CCTintBy@cocos2d@@UAEXM@Z
?update@CCTintTo@cocos2d@@UAEXM@Z
?update@CCToggleVisibility@cocos2d@@UAEXM@Z
?update@CCTurnOffTiles@cocos2d@@UAEXM@Z
?update@CCTwirl@cocos2d@@UAEXM@Z
?update@CCWaves3D@cocos2d@@UAEXM@Z
?update@CCWaves@cocos2d@@UAEXM@Z
?update@CCWavesTiles3D@cocos2d@@UAEXM@Z
?updateAllAtlasIndexes@CCParticleBatchNode@cocos2d@@AAEXXZ
?updateAtlasIndex@CCSpriteBatchNode@cocos2d@@AAEXPAVCCSprite@2@PAH@Z
?updateAtlasValueAt@CCTileMapAtlas@cocos2d@@AAEXABVCCPoint@2@ABU_ccColor3B@2@I@Z
?updateAtlasValues@CCAtlasNode@cocos2d@@UAEXXZ
?updateAtlasValues@CCLabelAtlas@cocos2d@@UAEXXZ
?updateAtlasValues@CCTileMapAtlas@cocos2d@@EAEXXZ
?updateBar@CCProgressTimer@cocos2d@@IAEXXZ
?updateBlendFunc@CCAtlasNode@cocos2d@@AAEXXZ
?updateBlendFunc@CCParticleBatchNode@cocos2d@@AAEXXZ
?updateBlendFunc@CCParticleSystem@cocos2d@@MAEXXZ
?updateBlendFunc@CCSprite@cocos2d@@MAEXXZ
?updateBlendFunc@CCSpriteBatchNode@cocos2d@@AAEXXZ
?updateColor@CCLayerColor@cocos2d@@MAEXXZ
?updateColor@CCLayerGradient@cocos2d@@MAEXXZ
?updateColor@CCProgressTimer@cocos2d@@QAEXXZ
?updateColor@CCSprite@cocos2d@@IAEXXZ
?updateContentScale@CCDirector@cocos2d@@QAEXW4TextureQuality@2@@Z
?updateController@CCApplication@cocos2d@@QAEXXZ
?updateControllerKeys@CCApplication@cocos2d@@QAEXXZ
?updateDesignResolutionSize@CCEGLViewProtocol@cocos2d@@IAEXXZ
?updateDesignSize@CCEGLView@cocos2d@@QAEXHH@Z
?updateDisplayedColor@CCLabelBMFont@cocos2d@@UAEXABU_ccColor3B@2@@Z
?updateDisplayedColor@CCLayerRGBA@cocos2d@@UAEXABU_ccColor3B@2@@Z
?updateDisplayedColor@CCNodeRGBA@cocos2d@@UAEXABU_ccColor3B@2@@Z
?updateDisplayedColor@CCSprite@cocos2d@@UAEXABU_ccColor3B@2@@Z
?updateDisplayedOpacity@CCLabelBMFont@cocos2d@@UAEXE@Z
?updateDisplayedOpacity@CCLayerRGBA@cocos2d@@UAEXE@Z
?updateDisplayedOpacity@CCNodeRGBA@cocos2d@@UAEXE@Z
?updateDisplayedOpacity@CCSprite@cocos2d@@UAEXE@Z
?updateFrameSize@CCEGLView@cocos2d@@IAEXXZ
?updateImagesVisibility@CCMenuItemSprite@cocos2d@@MAEXXZ
?updateLabel@CCLabelBMFont@cocos2d@@UAEXXZ
?updateModifierKeys@CCKeyboardDispatcher@cocos2d@@QAEX_N000@Z
?updateMouseControl@CCApplication@cocos2d@@QAEXXZ
?updateOpacityModifyRGB@CCAtlasNode@cocos2d@@AAEXXZ
?updatePosition@CCCardinalSplineBy@cocos2d@@UAEXAAVCCPoint@2@@Z
?updatePosition@CCCardinalSplineTo@cocos2d@@UAEXAAVCCPoint@2@@Z
?updateProgress@CCProgressTimer@cocos2d@@IAEXXZ
?updateQuad@CCTextureAtlas@cocos2d@@QAEXPAU_ccV3F_C4B_T2F_Quad@2@I@Z
?updateQuadFromSprite@CCSpriteBatchNode@cocos2d@@IAEXPAVCCSprite@2@I@Z
?updateQuadWithParticle@CCParticleSystem@cocos2d@@UAEXPAUsCCParticle@2@ABVCCPoint@2@@Z
?updateQuadWithParticle@CCParticleSystemQuad@cocos2d@@UAEXPAUsCCParticle@2@ABVCCPoint@2@@Z
?updateRadial@CCProgressTimer@cocos2d@@IAEXXZ
?updateScreenScale@CCDirector@cocos2d@@QAEXVCCSize@2@@Z
?updateTexture@CCLabelTTF@cocos2d@@AAE_NXZ
?updateTileForGID@CCTMXLayer@cocos2d@@AAEPAVCCSprite@2@IABVCCPoint@2@@Z
?updateTransform@CCNode@cocos2d@@UAEXXZ
?updateTransform@CCSprite@cocos2d@@UAEXXZ
?updateTweenAction@CCNode@cocos2d@@UAEXMPBD@Z
?updateUniformLocation@CCGLProgram@cocos2d@@AAE_NHPAXI@Z
?updateUniforms@CCGLProgram@cocos2d@@QAEXXZ
?updateVerticalSync@CCApplication@cocos2d@@QAEXXZ
?updateWindow@CCEGLView@cocos2d@@QAEXHH@Z
?updateWithNoTime@CCParticleSystem@cocos2d@@UAEXXZ
?urlDecode@ZipUtils@cocos2d@@SA?AV?$basic_string@DU?$char_traits@D@std@@V?$allocator@D@2@@std@@ABV34@@Z
?use@CCGLProgram@cocos2d@@QAEXXZ
?utf8Togbk@CCFileUtilsWin32@cocos2d@@QAE?AV?$basic_string@DU?$char_traits@D@std@@V?$allocator@D@2@@std@@PBD@Z
?value@?$IntFormatSpec@HU?$TypeSpec@$0A@@fmt@@D@fmt@@QBEHXZ
?valueForKey@CCDictionary@cocos2d@@QAEPBVCCString@2@ABV?$basic_string@DU?$char_traits@D@std@@V?$allocator@D@2@@std@@@Z
?valueForKey@CCDictionary@cocos2d@@QAEPBVCCString@2@H@Z
?vec2FromString@DS_Dictionary@@AAE_NABV?$basic_string@DU?$char_traits@D@std@@V?$allocator@D@2@@std@@AAVCCPoint@cocos2d@@@Z
?vertex@CCGrid3D@cocos2d@@QAE?AU_ccVertex3F@2@ABVCCPoint@2@@Z
?vertex@CCGrid3DAction@cocos2d@@QAE?AU_ccVertex3F@2@ABVCCPoint@2@@Z
?vertexFromAlphaPoint@CCProgressTimer@cocos2d@@IAE?AU_ccVertex2F@2@VCCPoint@2@@Z
?vertexShaderLog@CCGLProgram@cocos2d@@QAEPBDXZ
?vertexZForPos@CCTMXLayer@cocos2d@@AAEHABVCCPoint@2@@Z
?visit@CCClippingNode@cocos2d@@UAEXXZ
?visit@CCComponentContainer@cocos2d@@UAEXM@Z
?visit@CCDataVisitor@cocos2d@@UAEXPBVCCArray@2@@Z
?visit@CCDataVisitor@cocos2d@@UAEXPBVCCBool@2@@Z
?visit@CCDataVisitor@cocos2d@@UAEXPBVCCDictionary@2@@Z
?visit@CCDataVisitor@cocos2d@@UAEXPBVCCDouble@2@@Z
?visit@CCDataVisitor@cocos2d@@UAEXPBVCCFloat@2@@Z
?visit@CCDataVisitor@cocos2d@@UAEXPBVCCInteger@2@@Z
?visit@CCDataVisitor@cocos2d@@UAEXPBVCCSet@2@@Z
?visit@CCDataVisitor@cocos2d@@UAEXPBVCCString@2@@Z
?visit@CCNode@cocos2d@@UAEXXZ
?visit@CCParallaxNode@cocos2d@@UAEXXZ
?visit@CCParticleBatchNode@cocos2d@@UAEXXZ
?visit@CCPrettyPrinter@cocos2d@@UAEXPBVCCArray@2@@Z
?visit@CCPrettyPrinter@cocos2d@@UAEXPBVCCBool@2@@Z
?visit@CCPrettyPrinter@cocos2d@@UAEXPBVCCDictionary@2@@Z
?visit@CCPrettyPrinter@cocos2d@@UAEXPBVCCDouble@2@@Z
?visit@CCPrettyPrinter@cocos2d@@UAEXPBVCCFloat@2@@Z
?visit@CCPrettyPrinter@cocos2d@@UAEXPBVCCInteger@2@@Z
?visit@CCPrettyPrinter@cocos2d@@UAEXPBVCCSet@2@@Z
?visit@CCPrettyPrinter@cocos2d@@UAEXPBVCCString@2@@Z
?visit@CCRenderTexture@cocos2d@@UAEXXZ
?visit@CCSpriteBatchNode@cocos2d@@UAEXXZ
?visitObject@CCPrettyPrinter@cocos2d@@UAEXPBVCCObject@2@@Z
?width@?$TypeSpec@$0A@@fmt@@QBEIXZ
?width@?$TypeSpec@$0FI@@fmt@@QBEIXZ
?width@?$TypeSpec@$0GC@@fmt@@QBEIXZ
?width@?$TypeSpec@$0GP@@fmt@@QBEIXZ
?width@?$TypeSpec@$0HI@@fmt@@QBEIXZ
?willSwitchToScene@CCDirector@cocos2d@@QAEXPAVCCScene@2@@Z
?windowShouldClose@CCEGLView@cocos2d@@QAE_NXZ
?worldToNodeTransform@CCNode@cocos2d@@UAE?AUCCAffineTransform@2@XZ
?write@?$BasicWriter@D@fmt@@QAEXV?$BasicStringRef@D@2@ABVArgList@2@@Z
?write@?$BasicWriter@_W@fmt@@QAEXV?$BasicStringRef@_W@2@ABVArgList@2@@Z
?writeToFile@CCDictionary@cocos2d@@QAE_NPBD@Z
?writeToFile@CCFileUtils@cocos2d@@MAE_NPAVCCDictionary@2@ABV?$basic_string@DU?$char_traits@D@std@@V?$allocator@D@2@@std@@@Z
base64Decode
base64Encode
kmAABBAssign
kmAABBContainsPoint
kmAABBScale
kmAlmostEqual
kmDegreesToRadians
kmGLFreeAll
kmGLGetMatrix
kmGLLoadIdentity
kmGLLoadMatrix
kmGLMatrixMode
kmGLMultMatrix
kmGLPopMatrix
kmGLPushMatrix
kmGLRotatef
kmGLScalef
kmGLTranslatef
kmMat3Adjugate
kmMat3AreEqual
kmMat3Assign
kmMat3Determinant
kmMat3Fill
kmMat3Identity
kmMat3Inverse
kmMat3IsIdentity
kmMat3Multiply
kmMat3Rotation
kmMat3RotationAxisAngle
kmMat3RotationQuaternion
kmMat3RotationToAxisAngle
kmMat3RotationX
kmMat3RotationY
kmMat3RotationZ
kmMat3ScalarMultiply
kmMat3Scaling
kmMat3Translation
kmMat3Transpose
kmMat4AreEqual
kmMat4Assign
kmMat4ExtractPlane
kmMat4ExtractRotation
kmMat4Fill
kmMat4GetForwardVec3
kmMat4GetRightVec3
kmMat4GetUpVec3
kmMat4Identity
kmMat4Inverse
kmMat4IsIdentity
kmMat4LookAt
kmMat4Multiply
kmMat4OrthographicProjection
kmMat4PerspectiveProjection
kmMat4RotationAxisAngle
kmMat4RotationPitchYawRoll
kmMat4RotationQuaternion
kmMat4RotationToAxisAngle
kmMat4RotationTranslation
kmMat4RotationX
kmMat4RotationY
kmMat4RotationZ
kmMat4Scaling
kmMat4Translation
kmMat4Transpose
kmMax
kmMin
kmPlaneClassifyPoint
kmPlaneDot
kmPlaneDotCoord
kmPlaneDotNormal
kmPlaneFromPointNormal
kmPlaneFromPoints
kmPlaneIntersectLine
kmPlaneNormalize
kmPlaneScale
kmQuaternionAdd
kmQuaternionAssign
kmQuaternionConjugate
kmQuaternionDot
kmQuaternionExp
kmQuaternionIdentity
kmQuaternionInverse
kmQuaternionIsIdentity
kmQuaternionLength
kmQuaternionLengthSq
kmQuaternionLn
kmQuaternionMultiply
kmQuaternionMultiplyVec3
kmQuaternionNormalize
kmQuaternionRotationAxis
kmQuaternionRotationBetweenVec3
kmQuaternionRotationMatrix
kmQuaternionRotationYawPitchRoll
kmQuaternionScale
kmQuaternionSlerp
kmQuaternionToAxisAngle
kmRadiansToDegrees
kmRay2Fill
kmRay2IntersectCircle
kmRay2IntersectLineSegment
kmRay2IntersectTriangle
kmSQR
kmVec2Add
kmVec2AreEqual
kmVec2Dot
kmVec2Fill
kmVec2Length
kmVec2LengthSq
kmVec2Normalize
kmVec2Scale
kmVec2Subtract
kmVec2Transform
kmVec2TransformCoord
kmVec3Add
kmVec3AreEqual
kmVec3Assign
kmVec3Cross
kmVec3Dot
kmVec3Fill
kmVec3InverseTransform
kmVec3InverseTransformNormal
kmVec3Length
kmVec3LengthSq
kmVec3Normalize
kmVec3Scale
kmVec3Subtract
kmVec3Transform
kmVec3TransformCoord
kmVec3TransformNormal
kmVec3Zero
kmVec4Add
kmVec4AreEqual
kmVec4Assign
kmVec4Dot
kmVec4Fill
kmVec4Length
kmVec4LengthSq
kmVec4Lerp
kmVec4Normalize
kmVec4Scale
kmVec4Subtract
kmVec4Transform
kmVec4TransformArray
